                        ;
                        ; Copyright (C) 1980 by Scott Adams, All Rights Reserved.
                        ; Copyright (C) 1993 by Morten Løhre, All Rights Reserved.
                        ; Copyright (C) 2019 by Richard Goedeken, All Rights Reselved.
                        ;
                        ; Redistribution and use in source and binary forms, with or without
                        ; modification, are permitted provided that the following conditions are met:
                        ;
                        ; 1. Redistributions of source code must retain the above copyright notice, this
                        ;    list of conditions and the following disclaimer.
                        ; 2. Redistributions in binary form must reproduce the above copyright notice,
                        ;    this list of conditions and the following disclaimer in the documentation
                        ;    and/or other materials provided with the distribution.
                        ;
                        ; THIS SOFTWARE IS PROVIDED BY THE COPYRIGHT HOLDERS AND CONTRIBUTORS "AS IS" AND
                        ; ANY EXPRESS OR IMPLIED WARRANTIES, INCLUDING, BUT NOT LIMITED TO, THE IMPLIED
                        ; WARRANTIES OF MERCHANTABILITY AND FITNESS FOR A PARTICULAR PURPOSE ARE
                        ; DISCLAIMED. IN NO EVENT SHALL THE COPYRIGHT OWNER OR CONTRIBUTORS BE LIABLE FOR
                        ; ANY DIRECT, INDIRECT, INCIDENTAL, SPECIAL, EXEMPLARY, OR CONSEQUENTIAL DAMAGES
                        ; (INCLUDING, BUT NOT LIMITED TO, PROCUREMENT OF SUBSTITUTE GOODS OR SERVICES;
                        ; LOSS OF USE, DATA, OR PROFITS; OR BUSINESS INTERRUPTION) HOWEVER CAUSED AND
                        ; ON ANY THEORY OF LIABILITY, WHETHER IN CONTRACT, STRICT LIABILITY, OR TORT
                        ; (INCLUDING NEGLIGENCE OR OTHERWISE) ARISING IN ANY WAY OUT OF THE USE OF THIS
                        ; SOFTWARE, EVEN IF ADVISED OF THE POSSIBILITY OF SUCH DAMAGE.
                        ;
                        	incl	"bios.inc"
                        ; *******************************************************************
                        ; *** This software is copyright 2006 by Michael H Riley		***
                        ; *** You have permission to use, modify, copy, and distribute	***
                        ; *** this software so long as this copyright notice is retained. ***
                        ; *** This software may not be used in commercial applications	***
                        ; *** without express written permission from the author.	 ***
                        ; *******************************************************************
                        
                        ; f_getdev bit values
                        
                        b_devIDE	equ	00000001b	; IDE
                        b_devFLPY	equ	00000010b	; floppy
                        b_devBBSER	equ	00000100b	; Bit-banged serial
                        b_devUART	equ	00001000b	; UART
                        b_devRTC	equ	00010000b	; RTC
                        b_devNVR	equ	00100000b	; NVRAM
                        
                        #ifndef _IS_BIOS
                        
                        ; Define address for standard BIOS vectors
                        BIOS	equ	0ff00h
                        
                        ; Define address for extended BIOS vectors
                        EBIOS	equ	0f800h
                        
                        scall	equ	r4			; register for SCALL
                        sret	equ	r5			; register for SRET
                        
                        f_boot		equ	(BIOS+00h)	; boot from ide device
                        f_type		equ	(BIOS+03h)	; type 1 character to console
                        f_read		equ	(BIOS+06h)	; read 1 character from console
                        f_msg		equ	(BIOS+09h)	; type asciiz string to console
                        f_typex		equ	(BIOS+0ch)	; depricated, just returns now
                        f_input		equ	(BIOS+0fh)	; read asciiz from console
                        f_strcmp	equ	(BIOS+12h)	; compare 2 strings
                        f_ltrim		equ	(BIOS+15h)	; trim leading spaces
                        f_strcpy	equ	(BIOS+18h)	; copy an asciiz string
                        f_memcpy	equ	(BIOS+1bh)	; copy memory
                        f_wrtsec	equ	(BIOS+1eh)	; write floppy sector (depricated)
                        f_rdsec		equ	(BIOS+21h)	; read floppy sector (depricated)
                        f_seek0		equ	(BIOS+24h)	; floppy seek to track 0 (depricated)
                        f_seek		equ	(BIOS+27h)	; floopy track seek (depricated)
                        f_drive		equ	(BIOS+2ah)	; select floppy drive (depricated)
                        f_setbd		equ	(BIOS+2dh)	; set console baud rate
                        f_mul16		equ	(BIOS+30h)	; 16-bit multiply
                        f_div16		equ	(BIOS+33h)	; 16-bit division
                        f_idereset	equ	(BIOS+36h)	; reset ide device
                        f_idewrite	equ	(BIOS+39h)	; write ide sector
                        f_ideread	equ	(BIOS+3ch)	; read ide sector
                        f_initcall	equ	(BIOS+3fh)	; initialize R4 and R5
                        f_bootide	equ	(BIOS+42h)	; boot from ide device
                        f_hexin		equ	(BIOS+45h)	; convert ascii number to hex
                        f_hexout2	equ	(BIOS+48h)	; convert hex to 2-digit ascii
                        f_hexout4	equ	(BIOS+4bh)	; convert hex to 4-digit ascii
                        f_tty		equ	(BIOS+4eh)	; type character to console
                        f_mover		equ	(BIOS+51h)	; program relocator
                        f_minimon	equ	(BIOS+54h)	; mini monitor
                        f_freemem	equ	(BIOS+57h)	; determine memory size
                        f_isnum		equ	(BIOS+5ah)	; determine if D is numeric
                        f_atoi		equ	(BIOS+5dh)	; convert ascii to integer
                        f_uintout	equ	(BIOS+60h)	; convert unsigned integer to ascii
                        f_intout	equ	(BIOS+63h)	; convert signed integer to ascii
                        f_inmsg		equ	(BIOS+66h)	; type in-line message
                        f_inputl	equ	(BIOS+69h)	; read limited line from console
                        f_brktest	equ	(BIOS+6ch)	; check for serial break
                        f_findtkn	equ	(BIOS+6fh)	; find token in a token table
                        f_isalpha	equ	(BIOS+72h)	; determine if D is alphabetic
                        f_ishex		equ	(BIOS+75h)	; determine if D is hexadecimal
                        f_isalnum	equ	(BIOS+78h)	; determine if D is alpha or numeric
                        f_idnum		equ	(BIOS+7bh)	; determine type of ascii number
                        f_isterm	equ	(BIOS+7eh)	; determine if D is a termination char
                        f_getdev	equ	(BIOS+81h)	; get supported devices
                        
                        f_version	equ	(BIOS+0f9h)	; 3 bytes holding bios version number
                        
                        ; "Extended" BIOS vectors
                        
                        f_bread		equ	(EBIOS+00h)	; read from onboard serial port
                        f_btype		equ	(EBIOS+03h)	; write to onboard serial port
                        f_btest		equ	(EBIOS+06h)	; test onboard serial port
                        f_utype		equ	(EBIOS+09h)	; write to disk board UART
                        f_uread		equ	(EBIOS+0ch)	; read from disk board UART
                        f_utest		equ	(EBIOS+0fh)	; test disk board UART
                        f_usetbd	equ	(EBIOS+12h)	; set disk board UART baud rate and format
                        f_gettod	equ	(EBIOS+15h)	; read time of day clock
                        f_settod	equ	(EBIOS+18h)	; set time of day clock
                        f_rdnvr		equ	(EBIOS+1bh)	; read non volatile RAM
                        f_wrnvr		equ	(EBIOS+1eh)	; write non volatile RAM
                        f_idesize	equ	(EBIOS+21h)	; return size of attached IDE drive(s)
                        f_ideid		equ	(EBIOS+24h)	; return device data for IDE drive(s)
                        f_tmtoas	equ	(EBIOS+2ah)	; time to ASCII string
                        f_dttoas	equ	(EBIOS+27h)	; date to ASCII string
                        f_rtctest	equ	(EBIOS+2dh)	; test size and presence of RTC/NVR
                        f_astodt	equ	(EBIOS+30h)	; convert ASCII string to date
                        f_astotm	equ	(EBIOS+33h)	; convert ASCII string to time
                        f_nvrcchk	equ	(EBIOS+36h)	; compute NVR checksum
                        
                        #endif
                        
                        	incl	"kernel.inc"
                        O_CLDBOOT: equ     0300h               ; jump to cold boot routine
                        O_WRMBOOT: equ     0303h               ; jump to warm boot routine
                        O_OPEN:    equ     0306h               ; open a file
                        O_READ:    equ     0309h               ; read from file
                        O_WRITE:   equ     030ch               ; write to file
                        O_SEEK:    equ     030fh               ; seek to file position
                        O_CLOSE:   equ     0312h               ; close file
                        O_OPENDIR: equ     0315h               ; open dir as a file
                        O_DELETE:  equ     0318h               ; delete a file
                        O_RENAME:  equ     031bh               ; rename a file
                        O_EXEC:    equ     031eh               ; execute an external program
                        O_MKDIR:   equ     0321h               ; make directory
                        O_CHDIR:   equ     0324h               ; change directory
                        O_RMDIR:   equ     0327h               ; remove directory
                        O_RDLUMP:  equ     032Ah               ; read LAT entry
                        O_WRLUMP:  equ     032Dh               ; write LAT entry
                        O_TYPE:    equ     0330h               ; passthrough for console output
                        O_MSG:     equ     0333h               ; passthrough for console output
                        O_READKEY: equ     0336h               ; passthrough for console input
                        O_INPUT:   equ     0339h               ; passthrough for console input
                        O_PRTSTAT: equ     033ch               ; printer status
                        O_PRINT:   equ     033fh               ; output to printer
                        O_EXECBIN: equ     0342h               ; execute from default directory
                        O_SETDEF:  equ     0345h               ; set/get default directory
                        O_KINIT:   equ     0348h               ; reserved - do not use!!!
                        O_INMSG:   equ     034bh               ; passthrough for console output
                        O_GETDEV:  equ     034eh               ; passthrough to f_getdef
                        O_GETTOD:  equ     0351h               ; passthrough to f_gettod
                        O_SETTOD:  equ     0354h               ; passthrough to f_settod
                        O_INPUTL:  equ     0357h               ; passthrough to f_inputl
                        O_BOOT:    equ     035ah               ; passthrough to f_boot
                        O_TTY:     equ     035dh               ; passthrough to f_tty
                        O_SETBD:   equ     0360h               ; passthrough to f_setbd
                        O_INITCALL: equ    0363h               ; passthrough to f_initcall
                        O_BRKTEST: equ     0366h               ; passthrough to f_brktest
                        O_DEVCTRL: equ     0369h               ; passthrough to deverr
                        O_ALLOC:   equ     036ch               ; passthrough to alloc
                        O_DEALLOC: equ     036fh               ; passthrough to dealloc
                        I_SERVE:   equ     03f6h               ; address of interrupt chain head
                        V_IVEC:    equ     03fdh               ; interrupt head
                        V_DVEC:    equ     036ah               ; device head
                        K_VER:     equ     0400h               ; kernel version number
                        K_BUILD:   equ     0403h               ; kernel build number
                        K_BMONTH:  equ     0405h               ; kernel build month
                        K_BDAY:    equ     0406h               ; kernel build day
                        K_BYEAR:   equ     0407h               ; kernel build month
                        K_HIMEM:   equ     0442h               ; high memory pointer
                        K_HEAP:    equ     044dh               ; heap pointer
                        K_CLKFREQ: equ     0470h               ; system clock frequency
                        K_MONTH:   equ     0475h               ; date/time
                        K_DAY:     equ     0476h
                        K_YEAR:    equ     0477h
                        K_HOUR:    equ     0478h
                        K_MINUTE:  equ     0479h
                        K_SECOND:  equ     047ah
                        K_SECDEN:  equ     047bh
                        K_SECNUM:  equ     047dh
                        ;
                        ;O_HIMEM:   equ     0442h               ; himem value
                        O_DATTIM:  equ     0475h               ; date/time block
                        ;
                        errexists: equ     1
                        errnoffnd: equ     2
                        errinvdir: equ     3
                        errisdir:  equ     4
                        errdirnotempty: equ   5
                        errnotexec:     equ   6
                        ;
                        O_CREAT	equ	00000001b
                        O_TRUNC	equ	00000010b
                        O_APPND	equ	00000100b
                        
                        ;
                        bs	equ	8
                        cr	equ	13
                        lf	equ	10
                        esc	equ	27
                        del	equ	7fh
                        ;
                        #if	not O_CREAT
                        O_CREAT	equ	00000001b
                        #endif
                        #if	not O_TRUNC
                        O_TRUNC	equ	00000010b
                        #endif
                        ;
                        ; ************************************************************
                        ; This block generates the Execution header for a stand-alone
                        ; program. It begins 6 bytes before the program start.
                        ; ************************************************************
                        ;
                        	org	02000h-6	; Header starts at 01ffah
   1ffa   20 00         	dw	2000h
   1ffc   53 d2         	dw	endrom-2000h
   1ffe   20 00         	dw	2000h
                        ;
   2000   30 b0         	br	GameStart
                        ; **************************************************
                        ; Build date format:
                        ; 80h+month, day, four digit year
                        ; **************************************************
                        ; 80h month offset indicates extended
                        ; build information, with build number and text.
                        ; **************************************************
                        ;
   2002   87            date:	db	80h+7		; Month: July
   2003   15            	db	21		; Day 21
   2004   07 e5         	dw	2021		; year = 2021
                        ;
   2006   00 04         build:	dw	4		; build number
   2008   40 43 6f 70   	db	'@Copyleft 2021 Wayne Hortensius',0
   200c   79 6c 65 66   
   2010   74 20 32 30   
   2014   32 31 20 57   
   2018   61 79 6e 65   
   201c   20 48 6f 72   
   2020   74 65 6e 73   
   2024   69 75 73 00   
                        
                        ;__________________________________________________________________________________________________
                        ; Print a 2-digit number
                        
                        ; IN:       D = number to print, RF = pointer to start of string
                        ; OUT:      N/A
                        ; TRASHED:  D, R7
                        
                        Print2Digit
   2028   b7            	phi	R7				; save number to print
   2029   f8 00         	ldi	0
   202b   a7            	plo	R7
   202c   97            	ghi	R7
                        P2D_Tens
   202d   ff 0a         	smi	10
   202f   3b 34         	bl	P2D_TensDone
   2031   17            	inc	R7
   2032   30 2d         	br	P2D_Tens
                        P2D_TensDone
   2034   fc 0a         	adi	10				; D is now number of singles
   2036   b7            	phi	R7
   2037   87            	glo	R7
   2038   c6            	LSNZ				; if there are no tens, 
   2039   f8 f0         	ldi	' '-'0'			; use space as filler char.
   203b   fc 30         	adi	'0'
   203d   5f            	str	RF				; store the tens digit
   203e   1f            	inc	RF
   203f   f8 30         	ldi	'0'
   2041   a7            	plo	R7
   2042   97            	ghi	R7
                        P2D_Ones
   2043   ff 01         	smi	1
   2045   3b 4a         	bl	P2D_OnesDone
   2047   17            	inc	R7
   2048   30 43         	br	P2D_Ones
                        P2D_OnesDone
   204a   87            	glo	R7
   204b   5f            	str	RF
   204c   2f            	dec	RF
   204d   d5            	retn
                        
                        ;__________________________________________________________________________________________________
                        ; Clear screen
                        
                        ; IN:       N/A
                        ; OUT:      N/A
                        ; TRASHED:  RF
                        
                        ClearScreen
   204e   f8 2b bf f8   	load	rf,ClsMsg
   2052   bf af         
   2054   d4 ff 09      	call	f_msg
   2057   d5            	retn
                        
                        ;__________________________________________________________________________________________________
                        ; Generate a psuedo-random byte
                        
                        ; IN:       N/A
                        ; OUT:      D=psuedo-random number
                        ; TRASHED:  R7
                        
                        GenRandom
   2058   f8 73 b7 f8   	load	r7,Rand_VarX
   205c   73 a7         
   205e   e7            	sex	R7
                        
   205f   07            	ldn	R7		; D = VarX
   2060   fc 01         	adi	1
   2062   57            	str	R7
   2063   17            	inc	R7
   2064   47            	lda	R7		; D = VarA
   2065   17            	inc	R7
   2066   f3            	XOR		; D = VarA XOR VarC
   2067   27            	dec	R7
   2068   27            	dec	R7
   2069   27            	dec	R7
   206a   f3            	XOR		; D = VarA XOR VarC XOR VarX
   206b   17            	inc	R7
   206c   57            	str	R7		; VarA = D
   206d   17            	inc	R7
   206e   f4            	ADD
   206f   73            	stxd
   2070   f6            	SHR
   2071   f3            	XOR
   2072   17            	inc	R7
   2073   17            	inc	R7
   2074   f4            	ADD
   2075   57            	str	R7
                        ;;;	sex	r2
   2076   d5            	retn    
                        
                        ;__________________________________________________________________________________________________
                        ; Restore internal variables to starting state
                        
                        ; IN:       N/A
                        ; OUT:      N/A
                        ; TRASHED:  R7, R8, R9
                        
                        GameReset
   2077   f8 63 b8 f8   	load	r8,Array_I2		; start by initializing item locations
   207b   d7 a8         
   207d   f8 73 b9 f8   	load	r9,Array_IA
   2081   2d a9         
   2083   f8 3d         	ldi	IL
   2085   a7            	plo	R7
                        GRLoop1
   2086   48            	lda	R8
   2087   59            	str	R9
   2088   19            	inc	R9
   2089   27            	dec	R7
   208a   87            	glo	R7
   208b   3a 86         	bnz	GRLoop1
   208d   19            	inc	R9
   208e   19            	inc	R9
   208f   f8 00         	ldi	0
   2091   59            	str	R9				; Loadflag = 0
   2092   19            	inc	R9
   2093   59            	str	R9				; Endflag = 0
   2094   19            	inc	R9
   2095   59            	str	R9				; Darkflag = 0
   2096   f8 0b         	ldi	AR
   2098   19            	inc	R9
   2099   59            	str	R9				; Room = AR
   209a   f8 7d         	ldi	LI
   209c   19            	inc	R9
   209d   59            	str	R9				; lamp_oil = LT
   209e   f8 00         	ldi	0
   20a0   19            	inc	R9
   20a1   59            	str	R9
   20a2   19            	inc	R9
   20a3   59            	str	R9				; state_flags = 0
   20a4   d5            	retn
                        
                        ;__________________________________________________________________________________________________
                        ; Main program starting point
                        
                        Exit
   20a5   f8 73 bf f8   	load	rf,saveStack	; restore Elf/OS's stack
   20a9   bb af         
   20ab   4f            	lda	rf
   20ac   b2            	phi	r2
   20ad   0f            	ldn	rf
   20ae   a2            	plo	r2
   20af   d5            	retn			; return to Elf/OS
                        
                        GameStart
   20b0   f8 73 bf f8   	load	rf,saveStack			; save Elf/OS's stack
   20b4   bb af         
   20b6   92            	ghi	r2
   20b7   5f            	str	rf
   20b8   1f            	inc	rf
   20b9   82            	glo	r2
   20ba   5f            	str	rf
   20bb   f8 73 b2 f8   	load	r2,localStack			; use our own stack
   20bf   ba a2         
                        
   20c1   f8 64 bf f8   	load	rf,splash
   20c5   14 af         
   20c7   d4 ff 09      	call	f_msg
   20ca   d4 ff 06      	call	f_read				; wait for key press
   20cd   d4 20 4e      	call	ClearScreen
                        	; beginning of main() function
                        	; Print welcome message
   20d0   f8 2b bf f8   	load	rf,StartingMsg
   20d4   ce af         
   20d6   d4 ff 09      	call	f_msg
                        
                        	; start of main loop
                        MainLoad
                        	; reset all game state
   20d9   d4 20 77      	call	GameReset
                        	; load game if possible
   20dc   d4 23 10      	call	Do_LoadGame
                        	; clear screen
   20df   d4 20 4e      	call	ClearScreen
                        	; look()
   20e2   d4 23 67      	call	Do_Look
                        	; NV[0] = 0
   20e5   f8 73 b9 f8   	load	r9,Array_NV
   20e9   6a a9         
   20eb   f8 00         	ldi	0
   20ed   59            	str	R9
                        	; turn()
   20ee   d4 24 57      	call	Do_Turn
                        MainGetInput
                        	; get_input()
   20f1   d4 21 82      	call	Do_GetInput
                        	; if command parsing failed, try again
   20f4   3a f1         	bnz	MainGetInput
                        	; turn()
   20f6   d4 24 57      	call	Do_Turn
                        	; reload R9 to point to Endflag
   20f9   f8 73 b9 f8   	load	r9,Endflag
   20fd   6d a9         
   20ff   09            	ldn	R9
   2100   ca 20 a5      	lbnz	Exit			; quit if endflag != 0
   2103   29            	dec	R9
   2104   09            	ldn	R9
   2105   ca 20 d9      	lbnz	MainLoad			; loop back and re-load if loadflag != 0
                        	; deal with lamp oil
   2108   f8 73 ba f8   	load	ra,Array_IA+9
   210c   36 aa         
   210e   0a            	ldn	RA
   210f   ff ff         	smi	0FFH
   2111   ca 21 58      	lbnz	MainNoLamp
   2114   f8 73 b9 f8   	load	r9,LampOil
   2118   70 a9         
   211a   09            	ldn	R9
   211b   ff 01         	smi	1
   211d   59            	str	R9				; lamp_oil--
   211e   c3 21 2f      	lbdf	LampNotEmpty
   2121   f8 2c bf f8   	load	rf,LampEmptyMsg		; print Lamp is Empty message
   2125   c5 af         
   2127   d4 ff 09      	call	f_msg
   212a   f8 00         	ldi	0
   212c   5a            	str	RA				; IA[9] = 0
   212d   30 58         	br	MainNoLamp
                        LampNotEmpty
   212f   ff 19         	smi	25				; is our oil level < 25?
   2131   33 58         	bdf	MainNoLamp
   2133   f8 2c bf f8   	load	rf,LampLow1Msg		; print Lamp is low message
   2137   ee af         
   2139   d4 ff 09      	call	f_msg
   213c   f8 73 bf f8   	load	rf,PrintNumber
   2140   77 af         
   2142   09            	ldn	R9				; D = lamp_oil
   2143   d4 20 28      	call	Print2Digit
   2146   f8 73 bf f8   	load	rf,PrintNumber
   214a   77 af         
   214c   d4 ff 09      	call	f_msg
   214f   f8 2d bf f8   	load	rf,LampLow2Msg
   2153   15 af         
   2155   d4 ff 09      	call	f_msg
                        MainNoLamp
                        	; NV[0] = 0
   2158   f8 73 b9 f8   	load	r9,Array_NV
   215c   6a a9         
   215e   f8 00         	ldi	0
   2160   59            	str	R9
                        	; turn()
   2161   d4 24 57      	call	Do_Turn
                        MainLoopTail
                        	; reload R9 to point to Endflag
   2164   f8 73 b9 f8   	load	r9,Endflag
   2168   6d a9         
   216a   09            	ldn	R9
   216b   ca 20 a5      	lbnz	Exit			; if endflag != 0, quit
   216e   29            	dec	R9
   216f   09            	ldn	R9
   2170   ca 20 d9      	lbnz	MainLoad		; if loadflag != 0, loop back and re-load
   2173   c0 20 f1      	lbr	MainGetInput		; otherwise, get next command
                        
                        ;__________________________________________________________________________________________________
                        ; Adventure get_action_variable() function
                        
                        ; IN:       RD=pAcVar
                        ; OUT:      D=value
                        ; TRASHED:  N/A
                        
                        Sub_GetActionVariable
   2176   1d            	inc	RD			; ###
   2177   1d            	inc	RD
                        GAV_Loop1
   2178   1d            	inc	RD
   2179   0d            	ldn	RD
   217a   32 7f         	bz	GAV_FoundVar
   217c   1d            	inc	RD
   217d   30 78         	br	GAV_Loop1
                        GAV_FoundVar
   217f   2d            	dec	RD
   2180   0d            	ldn	RD
   2181   d5            	retn
                        
                        ;__________________________________________________________________________________________________
                        ; Adventure get_input() function
                        
                        ; IN:       N/A
                        ; OUT:      D = return value (1 if failed, 0 if command OK)
                        ; TRASHED:  R7, R8, R9, RA, RB, RC, RD, RF
                        
                        Do_GetInput
                        	; print input prompt
   2182   f8 2d bf f8   	load	rf,InputPromptMsg
   2186   23 af         
   2188   d4 ff 09      	call	f_msg
                        	; now we are in the gets() function. set up loop variables
   218b   f8 00         	ldi	0
   218d   aa            	plo	RA				; RA.0 is character counter; only 79 are allowed
   218e   f8 72 b9 f8   	load	r9,Array_TPS			; R9 is pointer to input line
   2192   dd a9         
                        GILoop1
                        	; wait for key press
   2194   9e            	ghi	re
   2195   fa fe         	ani	0feh
   2197   be            	phi	re
   2198   d4 ff 06      	call	f_read
   219b   bf            	phi	rf
   219c   9e            	ghi	re
   219d   f9 01         	ori	001h
   219f   be            	phi	re
                        	; handle backspace
   21a0   9f            	ghi	RF
   21a1   ff 08         	smi	8
   21a3   32 aa         	bz	GIBackspace
   21a5   9f            	ghi	RF
   21a6   ff 7f         	smi	07FH
   21a8   3a c0         	bnz	GILoop1N1
                        GIBackspace
   21aa   8a            	glo	RA				; if line length is 0
   21ab   32 94         	bz	GILoop1				; then just go back for another input character
   21ad   f8 08         	ldi	bs				; otherwise, erase last character
   21af   d4 ff 03      	call	f_type
   21b2   f8 20         	ldi	' '				; ' '
   21b4   d4 ff 03      	call	f_type
   21b7   f8 08         	ldi	bs				; '\b'
   21b9   d4 ff 03      	call	f_type
   21bc   2a            	dec	RA				; decrement character count
   21bd   29            	dec	R9				; decrement input line pointer
   21be   30 94         	br	GILoop1				; and then go back for another input character
                        GILoop1N1
                        	; handle enter or return
   21c0   9f            	ghi	RF
   21c1   ff 0a         	smi	lf
   21c3   c2 21 cb      	LBZ	GIEnter
   21c6   9f            	ghi	RF
   21c7   ff 0d         	smi	cr
   21c9   3a d7         	bnz	GILoop1N2
                        GIEnter
   21cb   f8 0d         	ldi	cr
   21cd   d4 ff 03      	call	f_type
   21d0   f8 0a         	ldi	lf
   21d2   d4 ff 03      	call	f_type
   21d5   30 ff         	br	GIgetsDone
                        GILoop1N2
                        	; ensure that input character is valid
   21d7   9f            	ghi	RF
   21d8   ff 20         	smi	' '
   21da   32 f3         	bz	GICharOk
   21dc   9f            	ghi	RF
   21dd   ff 41         	smi	'A'
   21df   3b f0         	bl	GIJumpLoop1
   21e1   9f            	ghi	RF
   21e2   ff 5b         	smi	'Z'+1
   21e4   3b f3         	bl	GICharOk
   21e6   9f            	ghi	RF
   21e7   ff 61         	smi	'a'
   21e9   3b f0         	bl	GIJumpLoop1
   21eb   9f            	ghi	RF
   21ec   ff 7b         	smi	'z'+1
   21ee   3b f3         	bl	GICharOk
                        GIJumpLoop1
   21f0   c0 21 94      	LBR	GILoop1
                        GICharOk
   21f3   9f            	ghi	RF
   21f4   59            	str	R9				; add input character to our string
   21f5   19            	inc	R9
   21f6   1a            	inc	RA				; increment string length counter
   21f7   d4 ff 03      	call	f_type				; echo character to serial output
   21fa   8a            	glo	RA				; how long is the input line?
   21fb   ff 4f         	smi	79
   21fd   3b f0         	bl	GIJumpLoop1		; if < 79 characters, go get another
                        GIgetsDone
   21ff   f8 00         	ldi	0			; null-terminate input string
   2201   59            	str	R9
   2202   f8 72 b9 f8   	load	r9,Array_TPS
   2206   dd a9         
                        	; now we are back in the get_input() function.
                        	; If the line is empty, go prompt for another command
   2208   09            	ldn	R9
   2209   c2 21 82      	LBZ	Do_GetInput
                        	; otherwise, start parsing. begin by skipping any leading spaces
                        GIParseLoop1
   220c   49            	lda	R9
   220d   32 13         	bz	GIParseLoop1Done
   220f   ff 20         	smi	' '
   2211   32 0c         	bz	GIParseLoop1
                        GIParseLoop1Done
   2213   29            	dec	R9
                        	; store pointer to first word in RA
   2214   89            	glo	R9
   2215   aa            	plo	RA
   2216   99            	ghi	R9
   2217   ba            	phi	RA
                        	; convert entire string to uppercase
                        GIParseLoop2
   2218   49            	lda	R9
   2219   c2 22 29      	lbz	GIParseLoop2Done
   221c   ff 61         	smi	'a'
   221e   cb 22 18      	lbnf	GIParseLoop2		; BL
   2221   fc 41         	adi	'A'
   2223   29            	dec	R9
   2224   59            	str	R9
   2225   19            	inc	R9
   2226   c0 22 18      	lbr	GIParseLoop2
                        GIParseLoop2Done
                        	; reload pointer to start of first word, and find the end (the next space)
   2229   8a            	glo	RA
   222a   a9            	plo	R9
   222b   9a            	ghi	RA
   222c   b9            	phi	R9
                        GIParseLoop3
   222d   49            	lda	R9
   222e   32 34         	bz	GIParseLoop3Done
   2230   ff 20         	smi	' '
   2232   3a 2d         	bnz	GIParseLoop3
                        GIParseLoop3Done
                        	; if we found a space, NULL-terminate the first word
   2234   29            	dec	R9
   2235   09            	ldn	R9
   2236   c2 22 3d      	lbz	GIParseLoop4
   2239   f8 00         	ldi	0
   223b   59            	str	R9
   223c   19            	inc	R9
                        	; skip any additional spaces in between words
                        GIParseLoop4
   223d   49            	lda	R9
   223e   ff 20         	smi	' '
   2240   c2 22 3d      	lbz	GIParseLoop4
   2243   29            	dec	R9
                        	; store pointer to second word in RB
   2244   89            	glo	R9
   2245   ab            	plo	RB
   2246   99            	ghi	R9
   2247   bb            	phi	RB
                        	; find matches for both words
   2248   f8 73 bc f8   	load	rc,Array_NV			; RC = pointer to NV[2]
   224c   6a ac         
   224e   f8 3a bd f8   	load	rd,Array_NVS			; RD = pointer to NVS[2][NL][4], NL=60
   2252   e3 ad         
   2254   f8 00         	ldi	0
   2256   bf            	phi	RF				; RF.1 = i, for (i = 0; i < 2; i++)
   2257   8a            	glo	RA				; load pointer to first word in R9
   2258   a9            	plo	R9
   2259   9a            	ghi	RA
   225a   b9            	phi	R9
                        GIParseLoop5
   225b   f8 00         	ldi	0
   225d   5c            	str	RC				; NV[i] = 0
   225e   09            	ldn	R9
   225f   32 b4         	bz	GIParseLoop5Tail
   2261   f8 00         	ldi	0
   2263   af            	plo	RF				; RF.0 = j, for (j = 0; j < NL; j++)
                        GIParseLoop5_1
   2264   8d            	glo	RD
   2265   a8            	plo	R8
   2266   9d            	ghi	RD
   2267   b8            	phi	R8				; R8 = s = NVS[i][j]
   2268   08            	ldn	R8
   2269   ff 2a         	smi	'*'			; if first character of word is '*'
   226b   3a 6e         	bnz	GIParseLoop5_1Next1
   226d   18            	inc	R8				; then skip it
                        GIParseLoop5_1Next1
                        	; comparestring()
   226e   e8            	sex	r8
   226f   49            	lda	R9				; Load 1st character in input word
   2270   32 84         	bz	GIParseLoop5_1WordEnd
   2272   f7            	SM				; compare to 1st character in table word
   2273   3a 9c         	bnz	GIParseLoop5_1NoMatch
   2275   18            	inc	R8
   2276   49            	lda	R9				; Load 2nd character in input word
   2277   32 84         	bz	GIParseLoop5_1WordEnd
   2279   f7            	SM				; compare to 2nd character in table word
   227a   3a 9c         	bnz	GIParseLoop5_1NoMatch
   227c   18            	inc	R8
   227d   49            	lda	R9				; Load 3rd character in input word
   227e   32 84         	bz	GIParseLoop5_1WordEnd
   2280   f7            	SM	
   2281   3a 9c         	bnz	GIParseLoop5_1NoMatch
   2283   38            	SKP				; fall through to GIParseLoop5_1Match
                        GIParseLoop5_1WordEnd
   2284   08            	ldn	R8
   2285   3a 9c         	bnz	GIParseLoop5_1NoMatch
                        GIParseLoop5_1Match
   2287   8f            	glo	RF
   2288   5c            	str	RC				; NV[i] = j
   2289   8d            	glo	RD
   228a   a8            	plo	R8
   228b   9d            	ghi	RD
   228c   b8            	phi	R8				; R8 = NVS[i][j]
                        GIParseLoop5_1_1			; while (NVS[i][NV[i]][0] == '*') NV[i]--;
   228d   08            	ldn	R8
   228e   ff 2a         	smi	'*'
   2290   3a b4         	bnz	GIParseLoop5Tail
   2292   0c            	ldn	RC
   2293   ff 01         	smi	1
   2295   5c            	str	RC				; NV[i]--
   2296   28            	dec	R8
   2297   28            	dec	R8
   2298   28            	dec	R8
   2299   28            	dec	R8
   229a   30 8d         	br	GIParseLoop5_1_1
                        GIParseLoop5_1NoMatch
   229c   e2            	sex	R2
   229d   1d            	inc	RD
   229e   1d            	inc	RD
   229f   1d            	inc	RD
   22a0   1d            	inc	RD				; move word table pointer to next word
   22a1   9f            	ghi	RF				; test i variable
   22a2   3a aa         	bnz	GIParseLoop5_1Next2
   22a4   8a            	glo	RA				; reload pointer to first word in R9
   22a5   a9            	plo	R9
   22a6   9a            	ghi	RA
   22a7   b9            	phi	R9
   22a8   30 ae         	br	GIParseLoop5_1Next3
                        GIParseLoop5_1Next2
   22aa   8b            	glo	RB				; reload pointer to second word in R9
   22ab   a9            	plo	R9
   22ac   9b            	ghi	RB
   22ad   b9            	phi	R9
                        GIParseLoop5_1Next3
   22ae   1f            	inc	RF
   22af   8f            	glo	RF
   22b0   ff 3c         	smi	NL				; NL = 60
   22b2   3b 64         	BNF  GIParseLoop5_1		; go check the next word in the table
                        GIParseLoop5Tail
   22b4   1c            	inc	RC				; point to next element in NV array
   22b5   8b            	glo	RB				; load pointer to second word in R9
   22b6   a9            	plo	R9
   22b7   9b            	ghi	RB
   22b8   b9            	phi	R9
   22b9   f8 3b bd f8   	load	rd,Array_NVS+(NL*4)       ; RD = pointer to second half of NVS[2][NL][4], NL=60
   22bd   d3 ad         
   22bf   9f            	ghi	RF
   22c0   fc 01         	adi	1				; i++
   22c2   bf            	phi	RF
   22c3   ff 02         	smi	2
   22c5   3b 5b         	BNF  GIParseLoop5		; branch if less
                        	; validate first word (verb)
   22c7   2c            	dec	RC
   22c8   2c            	dec	RC
   22c9   4c            	lda	RC
   22ca   ca 22 e9      	lbnz	GIParseVerbOk
   22cd   f8 2d bf f8   	load	rf,InputError1Msg
   22d1   43 af         
   22d3   d4 ff 09      	call	f_msg			; print "I don't know how to "
   22d6   8a            	glo	RA
   22d7   af            	plo	RF
   22d8   9a            	ghi	RA
   22d9   bf            	phi	RF
   22da   d4 ff 09      	call	f_msg			; print first word
   22dd   f8 2d bf f8   	load	rf,InputError2Msg
   22e1   5c af         
   22e3   d4 ff 09      	call	f_msg			; print '!\r\n'
   22e6   f8 01         	ldi	1
   22e8   d5            	retn				; return 1
                        GIParseVerbOk
                        	; validate second word (noun)
   22e9   0b            	ldn	RB				; D is word[0][0]
   22ea   c2 23 0d      	lbz	GIParseAllGood
   22ed   0c            	ldn	RC				; D is NV[1]
   22ee   ca 23 0d      	lbnz	GIParseAllGood
   22f1   f8 2d bf f8   	load	rf,InputError3Msg
   22f5   64 af         
   22f7   d4 ff 09      	call	f_msg				; print "I don't know what a "
   22fa   8b            	glo	RB
   22fb   af            	plo	RF
   22fc   9b            	ghi	RB
   22fd   bf            	phi	RF
   22fe   d4 ff 09      	call	f_msg				; print second word
   2301   f8 2d bf f8   	load	rf,InputError4Msg
   2305   7d af         
   2307   d4 ff 09      	call	f_msg				; print " is!\n"
   230a   f8 01         	ldi	1
   230c   d5            	retn				; return 1
                        GIParseAllGood
   230d   f8 00         	ldi	0
   230f   d5            	retn				; return 0
                        
                        ;__________________________________________________________________________________________________
                        ; LoadGame function to restore game state from disk file
                        
                        ; IN:       N/A
                        ; OUT:      N/A
                        ; TRASHED:  R7, R8, RC, RD, RF
                        
                        Do_LoadGame
   2310   f8 2c bf f8   	load	rf,LoadQestion
   2314   49 af         
   2316   d4 ff 09      	call	f_msg				; print "Load saved game (Y or N)?"
   2319   d4 2a ee      	call	Do_YesNo			; D = 0 if No, 1 if Yes
   231c   ca 23 20      	lbnz	LGNext1
   231f   d5            	retn					; return
                        LGNext1
   2320   f8 72 bf f8   	load	rf,SavePath
   2324   cc af         
   2326   f8 73 bd f8   	load	rd,SaveFiledes		; savefile descriptor
   232a   bd ad         
   232c   f8 00         	ldi	0			; (nocreate, no truncate, no append) flags
   232e   a7            	plo	r7
   232f   d4 03 06      	call	O_OPEN			; attempt to open file
   2332   cb 23 42      	lbnf	LoadOpened		; DF=0, file was opened
                        LoadFailed:
   2335   f8 2c bf f8   	load	rf,LoadFailedMsg
   2339   6f af         
   233b   d4 ff 09      	call	f_msg
   233e   d4 ff 06      	call	f_read			; wait for key press
   2341   d5            	retn
                        ;
                        LoadOpened:
   2342   f8 00 bc f8   	load	rc,SaveLength
   2346   46 ac         
   2348   f8 73 bf f8   	load	rf,SaveStart
   234c   2d af         
   234e   f8 73 bd f8   	load	rd,SaveFiledes
   2352   bd ad         
   2354   d4 03 09      	call	O_READ			; read the save file
   2357   cb 23 5d      	lbnf	CloseLoadFile		; DF=0, read OK
   235a   d4 23 35      	call	LoadFailed		; erad failed
                        CloseLoadFile:
   235d   f8 73 bf f8   	load	rf,SaveFiledes
   2361   bd af         
   2363   d4 03 12      	call	O_CLOSE			; close the image file
   2366   d5            	retn
                        
                        ;__________________________________________________________________________________________________
                        ; Adventure look() function
                        
                        ; IN:       N/A
                        ; OUT:      N/A
                        ; TRASHED:  R7, R8, R9, RA, RB, RC, RF
                        
                        Do_Look
   2367   f8 73 b9 f8   	load	r9,Darkflag
   236b   6e a9         
   236d   49            	lda	R9				; D == is_dark
   236e   32 89         	bz	LKNotDark
   2370   e9            	sex	R9				; R9 is pointing to 'room'
   2371   f8 73 ba f8   	load	ra,Array_IA+9
   2375   36 aa         
   2377   0a            	ldn	RA
   2378   fe            	SHL
   2379   33 89         	BDF	LKNotDark
   237b   f6            	SHR
   237c   f7            	SM
   237d   32 89         	bz	LKNotDark
                        	; it's dark. print a message and return
   237f   f8 2d bf f8   	load	rf,Look1Msg
   2383   88 af         
   2385   d4 ff 09      	call	f_msg
   2388   d5            	retn
                        LKNotDark
   2389   09            	ldn	R9
   238a   fe            	SHL				; D = room * 2
   238b   fc bc         	adi	LOW Table_RSS
   238d   aa            	plo	RA
   238e   f8 3d         	ldi	HIGH Table_RSS
   2390   7c 00         	ADCI	0
   2392   ba            	phi	RA
   2393   4a            	lda	RA
   2394   bb            	phi	RB
   2395   4a            	lda	RA
   2396   ab            	plo	RB				; RB = RSS[room]
   2397   4b            	lda	RB
   2398   ff 2a         	smi	'*'
   239a   32 a6         	bz	LKPrintRoom1
   239c   2b            	dec	RB
   239d   f8 2d bf f8   	load	rf,Look2Msg			; print "I'm in a " prefix
   23a1   b2 af         
   23a3   d4 ff 09      	call	f_msg
                        LKPrintRoom1
   23a6   8b            	glo	RB
   23a7   af            	plo	Rf
   23a8   9b            	ghi	RB
   23a9   bf            	phi	Rf
   23aa   d4 ff 09      	call	f_msg				; print the room description
   23ad   f8 00         	ldi	0
   23af   ab            	plo	RB				; RB.0 is item counter 'i' for loop
   23b0   bb            	phi	RB				; RB.1 is flag which specifies whether item list prefix has been printed
   23b1   f8 73 ba f8   	load	ra,Array_IA			; RA is pointer to start of IA[]
   23b5   2d aa         
                        LKLoop1
   23b7   e9            	sex	R9				; R9 is pointing to 'room'
   23b8   4a            	lda	RA
   23b9   f7            	SM
   23ba   ca 24 00      	lbnz	LKLoop1Tail
                        	; we have found an item in this room.  start by printing the item list header if necessary
   23bd   9b            	ghi	RB
   23be   3a cc         	bnz	LKLoop1Next1
   23c0   f8 01         	ldi	1
   23c2   bb            	phi	RB
   23c3   f8 2d bf f8   	load	rf,Look3Msg
   23c7   bc af         
   23c9   d4 ff 09      	call	f_msg				; print: "Visible Items Here:"
                        LKLoop1Next1
                        	; print item description
   23cc   8b            	glo	RB				; D = item number (i)
   23cd   fe            	SHL
   23ce   fc 1a         	adi	LOW Table_IAS
   23d0   a8            	plo	R8
   23d1   f8 5c         	ldi	HIGH Table_IAS
   23d3   7c 00         	adci	0
   23d5   b8            	phi	R8
   23d6   48            	lda	R8
   23d7   bc            	phi	RC
   23d8   48            	lda	R8
   23d9   ac            	plo	RC				; RC = pointer to item description
   23da   f8 20         	ldi	' '
   23dc   d4 ff 03      	call	f_type
   23df   f8 20         	ldi	' '
   23e1   d4 ff 03      	call	f_type
   23e4   f8 20         	ldi	' '
   23e6   d4 ff 03      	call	f_type
                        LKLoop1_1
   23e9   0c            	ldn	RC
   23ea   32 f6         	bz	LKLoop1_1Tail
   23ec   ff 2f         	smi	'/'
   23ee   32 f6         	bz	LKLoop1_1Tail
   23f0   4c            	lda	RC
   23f1   d4 ff 03      	call	f_type
   23f4   30 e9         	br	LKLoop1_1
                        LKLoop1_1Tail
   23f6   f8 0d         	ldi	cr
   23f8   d4 ff 03      	call	f_type
   23fb   f8 0a         	ldi	lf
   23fd   d4 ff 03      	call	f_type
                        LKLoop1Tail
   2400   1b            	inc	RB
   2401   8b            	glo	RB
   2402   ff 3d         	smi	IL
   2404   cb 23 b7      	LBNF	LKLoop1
                        	; now print room exits
   2407   e9            	sex	R9
   2408   09            	ldn	R9				; D = room
   2409   f4            	ADD
   240a   f4            	ADD
   240b   fe            	SHL				; D = room * 6
   240c   fc f0         	adi	LOW Array_RM
   240e   a9            	plo	R9
   240f   f8 3c         	ldi	HIGH Array_RM
   2411   7c 00         	adci	0
   2413   b9            	phi	R9				; R9 is pointer to RM[room][0]
   2414   f8 00         	ldi	0
   2416   ab            	plo	RB				; RB.0 is direction counter 'i' for loop
   2417   bb            	phi	RB				; RB.1 is flag which specifies whether exit list header has been printed
                        LKLoop2
   2418   49            	lda	R9
   2419   c2 24 40      	LBZ	LKLoop2Tail
                        	; we have found an exit from this room.  start by printing the exit list header if necessary
   241c   9b            	ghi	RB
   241d   ca 24 2c      	lbnz	LKLoop2Next1
   2420   f8 01         	ldi	1
   2422   bb            	phi	RB
   2423   f8 2d bf f8   	load	rf,Look4Msg
   2427   e0 af         
   2429   d4 ff 09      	call	f_msg
                        LKLoop2Next1
   242c   8b            	glo	RB
   242d   fe            	SHL
   242e   fe            	SHL
   242f   fe            	SHL
   2430   fc c3         	adi	LOW Array_DIR
   2432   af            	plo	RF
   2433   f8 3c         	ldi	HIGH Array_DIR
   2435   7c 00         	adci	0
   2437   bf            	phi	RF
   2438   d4 ff 09      	call	f_msg				; print direction
   243b   f8 20         	ldi	' '
   243d   d4 ff 03      	call	f_type
                        LKLoop2Tail
   2440   1b            	inc	RB
   2441   8b            	glo	RB
   2442   ff 06         	smi	6
   2444   cb 24 18      	lbnf	LKLoop2			; BL
   2447   f8 0d         	ldi	cr
   2449   d4 ff 03      	call	f_type
   244c   f8 0a         	ldi	lf
   244e   d4 ff 03      	call	f_type
   2451   f8 0a         	ldi	lf
   2453   d4 ff 03      	call	f_type
   2456   d5            	retn
                        
                        ;__________________________________________________________________________________________________
                        ; Adventure turn() function
                        
                        ; IN:       N/A
                        ; OUT:      N/A
                        ; TRASHED:  R7, R8, R9, RA, RB, RF
                        
                        Do_Turn
   2457   f8 00         	ldi	0
   2459   a9            	plo	R9				; R9.0 = i ((is_dark) && (IA[9] != room) && (IA[9] != -1))
   245a   b9            	phi	R9				; R9.1 = go_direction
   245b   f8 73 b7 f8   	load	r7,Array_NV
   245f   6a a7         
   2461   47            	lda	R7				; D = NV[0]
   2462   ff 01         	smi	1
   2464   3a 7c         	bnz	TUNoGo
   2466   07            	ldn	R7
   2467   3a 73         	bnz	TUHaveNoun
   2469   f8 2e bf f8   	load	rf,Turn1Msg
   246d   01 af         
   246f   d4 ff 09      	call	f_msg				; print "Where do you want me to go? Give me a direction too.\n"
   2472   d5            	retn					; return
                        TUHaveNoun
   2473   ff 07         	smi	007H
   2475   c3 24 ec      	LBDF TUNoDirection		; BGE
   2478   07            	ldn	R7
   2479   b9            	phi	R9				; go_direction = NV[1]
   247a   30 8b         	br	TUHaveDirection
                        TUNoGo
   247c   27            	dec	R7
   247d   07            	ldn	R7				; D = NV[0]
   247e   ff 36         	smi	54
   2480   cb 24 ec      	LBNF TUNoDirection		; BL
   2483   ff 06         	smi	6
   2485   c3 24 ec      	LBDF TUNoDirection		; BGE
   2488   fc 07         	adi	7
   248a   b9            	phi	R9				; go_direction = NV[0] - 53
                        TUHaveDirection
   248b   f8 73 ba f8   	load	ra,Darkflag
   248f   6e aa         
   2491   4a            	lda	RA				; D == is_dark
   2492   ea            	sex	RA				; RA is pointing to 'room'
   2493   32 ae         	bz	TUNotDark
   2495   f8 73 bb f8   	load	rb,Array_IA+9			; RB is pointer to IA[9]
   2499   36 ab         
   249b   0b            	ldn	RB
   249c   fe            	SHL
   249d   33 ae         	BDF  TUNotDark
   249f   f6            	SHR
   24a0   f7            	SM
   24a1   32 ae         	bz	TUNotDark
                        	; it's dark. print a message
   24a3   19            	inc	R9				; i = 1
   24a4   f8 2e bf f8   	load	rf,Turn2Msg
   24a8   41 af         
   24aa   d4 ff 09      	call	f_msg				; print: "Warning: it's dangerous to move in the dark!\n"
   24ad   ea            	sex	RA
                        TUNotDark
   24ae   99            	ghi	R9
   24af   52            	str	R2				; put go_direction on top of stack
   24b0   f0            	LDX				; D = room
   24b1   f4            	ADD
   24b2   f4            	ADD
   24b3   fe            	SHL				; D = room * 6
   24b4   e2            	sex	R2
   24b5   f4            	ADD				; D = room * 6 + go_direction
   24b6   fc ef         	adi	LOW (Array_RM-1)
   24b8   ab            	plo	RB
   24b9   f8 3c         	ldi	HIGH (Array_RM-1)
   24bb   7c 00         	adci	0
   24bd   bb            	phi	RB				; RB is pointer to RM[room][go_direction-1]
   24be   0b            	ldn	RB
   24bf   b9            	phi	R9				; R9.1 = j
   24c0   ca 24 e3      	lbnz	TUExitNotBlocked
   24c3   89            	glo	R9
   24c4   3a d0         	bnz	TUBlockedAndDark
   24c6   f8 2e bf f8   	load	rf,Turn3Msg
   24ca   7b af         
   24cc   d4 ff 09      	call	f_msg				; print: "I can't go in that direction.\n"
   24cf   d5            	retn				; return
                        TUBlockedAndDark
   24d0   f8 2e bf f8   	load	rf,Turn4Msg
   24d4   a4 af         
   24d6   d4 ff 09      	call	f_msg				; print: "I fell down and broke my neck.\n"
   24d9   f8 21         	ldi	RL-1
   24db   b9            	phi	R9				; j = RL-1
   24dc   2a            	dec	RA
   24dd   f8 00         	ldi	0
   24df   5a            	str	RA				; is_dark = false
   24e0   1a            	inc	RA
   24e1   30 e6         	br	TUSetRoom
                        TUExitNotBlocked
   24e3   d4 20 4e      	call	ClearScreen
                        TUSetRoom
   24e6   99            	ghi	R9
   24e7   5a            	str	RA				; room = j
   24e8   d4 23 67      	call	Do_Look			; look()
   24eb   d5            	retn				; return
                        TUNoDirection
   24ec   f8 00         	ldi	0
   24ee   b9            	phi	R9				; R9.1 = command_found = false
   24ef   a9            	plo	R9
   24f0   19            	inc	R9				; R9.0 = command_allowed = true
   24f1   f8 31 ba f8   	load	ra,Array_C			; RA = C[cmd]
   24f5   92 aa         
                        TULoop1
   24f7   f8 73 b7 f8   	load	r7,Array_NV
   24fb   6a a7         
   24fd   0a            	ldn	RA
   24fe   a8            	plo	R8				; R8.0 = i = C[cmd][0]
   24ff   32 06         	bz	TULoop1Next1
   2501   07            	ldn	R7
   2502   c2 25 7c      	lbz	TULoop1Done		; if (NV[0] == 0 && i != 0) break;
   2505   88            	glo	R8
                        TULoop1Next1
   2506   e7            	sex	R7
   2507   f7            	SM
   2508   ca 25 6e      	lbnz	TULoop1Tail
   250b   1a            	inc	RA
   250c   0a            	ldn	RA
   250d   2a            	dec	RA
   250e   a8            	plo	R8				; R8.0 = i = C[cmd][1]
   250f   c2 25 2d      	lbz	TULoop1CheckCommand
   2512   17            	inc	R7
   2513   f7            	SM				; D = i - NV[1]
   2514   27            	dec	R7
   2515   c2 25 2d      	lbz	TULoop1CheckCommand
   2518   07            	ldn	R7				; D = NV[0]
   2519   ca 25 6e      	lbnz	TULoop1Tail
                        TULoop1GetChances			; get random number between 1 and 100
   251c   d4 20 58      	call	GenRandom			; R7 is trashed
   251f   f6            	SHR
   2520   ff 64         	smi	100
   2522   c3 25 1c      	lbdf	TULoop1GetChances		;;E BGE
   2525   fc 65         	adi	101
   2527   52            	str	R2
   2528   88            	glo	R8				; D = i
   2529   f7            	SM
   252a   cb 25 6e      	lbnf	TULoop1Tail			; BL
                        TULoop1CheckCommand
   252d   f8 01         	ldi	1
   252f   b9            	phi	R9				; R9.1 = command_found = true
   2530   d4 26 a2      	call	Do_CheckLogics
   2533   a9            	plo	R9				; R9.0 = command_allowed = check_logics(cmd)
   2534   c2 25 6e      	lbz	TULoop1Tail
   2537   8a            	glo	RA				; pre-increment C[cmd] pointer to use as an end-of-loop marker
   2538   ad            	plo	RD				; and store original value in RD###
   2539   fc 10         	adi	010H
   253b   aa            	plo	RA
   253c   ab            	plo	RB
   253d   9a            	ghi	RA
   253e   bd            	phi	RD				; RD is pAcVar###
   253f   7c 00         	adci	0
   2541   ba            	phi	RA
   2542   bb            	phi	RB
   2543   2b            	dec	RB
   2544   2b            	dec	RB
   2545   2b            	dec	RB
   2546   2b            	dec	RB				; RB is C[cmd][y]
                        TULoop1_1
   2547   0b            	ldn	RB				; D = ac
   2548   32 4f         	bz	TULoop1_1SkipAction
   254a   d4 27 c0      	call	Do_Action
   254d   3a 63         	bnz	TULoop1_1Done		; if (failed) break;
                        TULoop1_1SkipAction
   254f   f8 73 b7 f8   	load	r7,Loadflag
   2553   6c a7         
   2555   47            	lda	R7
   2556   3a 7c         	bnz	TULoop1Done		; if (loadflag) break twice
   2558   07            	ldn	R7
   2559   3a 7c         	bnz	TULoop1Done		; if (endflag) break twice
                        TULoo1_1Tail
   255b   1b            	inc	RB				; y++
   255c   8b            	glo	RB
   255d   52            	str	R2
   255e   8a            	glo	RA
   255f   f7            	SM
   2560   ca 25 47      	lbnz	TULoop1_1			; loop if C[cmd][y] != C[cmd+1][0]
                        TULoop1_1Done
   2563   f8 73 b7 f8   	load	r7,Array_NV			; R7 = NV
   2567   6a a7         
   2569   07            	ldn	R7
   256a   3a 7c         	bnz	TULoop1Done		; if (NV[0] != 0) break;
   256c   30 76         	br	TULoop1Tail2		; skip C[cmd] pointer advancement because we already did it
                        TULoop1Tail
   256e   8a            	glo	RA
   256f   fc 10         	adi	010H
   2571   aa            	plo	RA
   2572   9a            	ghi	RA
   2573   7c 00         	adci	000H
   2575   ba            	phi	RA				; RA = C[cmd+1]
                        TULoop1Tail2
   2576   0a            	ldn	RA
   2577   ff ff         	smi	0FFH
   2579   ca 24 f7      	lbnz	TULoop1
                        TULoop1Done
   257c   f8 73 b7 f8   	load	r7,Array_NV
   2580   6a a7         
   2582   07            	ldn	R7				; D = NV[0]
   2583   ff 0a         	smi	10
   2585   32 8c         	bz	TUCarryDrop
   2587   07            	ldn	R7
   2588   ff 12         	smi	18
   258a   3a 96         	bnz	TUNotCarryDrop
                        TUCarryDrop
   258c   89            	glo	R9				; D = command_allowed
   258d   32 92         	bz	TURunCarryDrop
   258f   99            	ghi	R9				; D = command_found
   2590   3a 96         	bnz	TUNotCarryDrop
                        TURunCarryDrop			; if (!command_found || !command_allowed)
   2592   d4 25 b1      	call	Do_CarryDrop		; carry_drop()
   2595   d5            	retn				; return
                        TUNotCarryDrop
   2596   07            	ldn	R7				; D = NV[0]
   2597   32 b0         	bz	TUDone
   2599   99            	ghi	R9				; D = command_found
   259a   3a a4         	bnz	TUCommandWasFound
   259c   f8 2e bf f8   	load	rf,Turn5Msg
   25a0   d0 af         
   25a2   30 ad         	br	TUPrintAndReturn		; print: "I don't understand your command."
                        TUCommandWasFound
   25a4   89            	glo	R9				; D = command_allowed
   25a5   3a b0         	bnz	TUDone
   25a7   f8 2e bf f8   	load	rf,Turn6Msg
   25ab   fc af         
                        TUPrintAndReturn
   25ad   d4 ff 09      	call	f_msg				; print: "I can't do that yet."
                        TUDone
   25b0   d5            	retn
                        
                        ;__________________________________________________________________________________________________
                        ; Adventure carry_drop() function
                        
                        ; IN:       N/A
                        ; OUT:      N/A
                        ; TRASHED:  R7, R8, R9, RA, RB, RF
                        
                        Do_CarryDrop
   25b1   f8 73 b7 f8   	load	r7,Array_NV			; R7 = NV
   25b5   6a a7         
   25b7   47            	lda	R7
   25b8   aa            	plo	RA				; RA.0 = NV[0]
   25b9   07            	ldn	R7
   25ba   ba            	phi	RA				; RA.1 = NV[1]
   25bb   3a c6         	bnz	CDHaveNoun
   25bd   f8 2f bf f8   	load	rf,CarryDrop1Msg
   25c1   1c af         
   25c3   c0 26 9e      	LBR  CDPrintAndReturn		; print: "What?"
                        CDHaveNoun
   25c6   8a            	glo	RA
   25c7   ff 0a         	smi	10
   25c9   ca 25 f6      	lbnz	CDNotTake
                        	; check to make sure we don't have too many items
   25cc   f8 73 b7 f8   	load	r7,Array_IA			; R7 points to IA array
   25d0   2d a7         
   25d2   f8 00         	ldi	0
   25d4   af            	plo	RF				; RF.0 = number of items in inventory
   25d5   f8 3d         	ldi	IL
                        CDLoop1
   25d7   bf            	phi	RF				; RF.1 = item counter
   25d8   47            	lda	R7
   25d9   ff ff         	smi	0FFH
   25db   ca 25 df      	lbnz	CDLoop1Tail
   25de   1f            	inc	RF
                        CDLoop1Tail
   25df   9f            	ghi	RF
   25e0   ff 01         	smi	1
   25e2   ca 25 d7      	lbnz	CDLoop1
   25e5   f8 05         	ldi	MX
   25e7   52            	str	R2
   25e8   8f            	glo	RF
   25e9   f7            	SM					; DF/D = items - MX
   25ea   3b f6         	bl	CDNotTake
   25ec   f8 2f bf f8   	load	rf,CarryDrop2Msg
   25f0   2c af         
   25f2   d4 ff 09      	call	f_msg				; print: "I can't. I'm carrying too much!"
   25f5   d5            	retn					; return
                        CDNotTake
   25f6   f8 3d         	ldi	IL
   25f8   af            	plo	RF				; RF.0 = item counter
   25f9   f8 00         	ldi	0
   25fb   bf            	phi	RF				; RF.1 = found_object
   25fc   9a            	ghi	RA				; D = NV[1]
   25fd   fe            	SHL
   25fe   fe            	SHL
   25ff   fc d3         	adi	LOW (Array_NVS+240)
   2601   a9            	plo	R9
   2602   f8 3b         	ldi	HIGH (Array_NVS+240)
   2604   7c 00         	adci	0
   2606   b9            	phi	R9				; R9 points to NVS[1][NV[1]], which is a 3-letter uppercase noun given by the user
   2607   f8 5c b7 f8   	load	r7,Table_IAS			; R7 points to IAS table
   260b   1a a7         
   260d   e8            	sex	r8
                        CDLoop2
   260e   47            	lda	R7
   260f   b8            	phi	R8
   2610   47            	lda	R7
   2611   a8            	plo	R8				; R8 = pointer to IAS[j][0]
                        CDLoop2_1
   2612   48            	lda	R8				; find end of item description string
   2613   3a 12         	bnz	CDLoop2_1
   2615   28            	dec	R8
   2616   28            	dec	R8
   2617   08            	ldn	R8
   2618   ff 2f         	smi	'/'			; if last character is not a slash
   261a   ca 26 3b      	lbnz	CDLoop2Tail		; then skip this item
                        CDLoop2_2
   261d   28            	dec	R8				; else find the preceding slash
   261e   08            	ldn	R8
   261f   ff 2f         	smi	'/'
   2621   ca 26 1d      	lbnz	CDLoop2_2
   2624   18            	inc	R8				; R8 is first character in short uppercase object name
                        	; comparestring()
   2625   49            	lda	R9				; Load 1st character in input noun
   2626   f7            	SM				; compare to 1st character in object name
   2627   ca 26 3a      	lbnz	CDLoop2_2NoMatch1
   262a   18            	inc	R8
   262b   49            	lda	R9				; Load 2nd character in input noun
   262c   f7            	SM				; compare to 2nd character in object name
   262d   ca 26 39      	lbnz	CDLoop2_2NoMatch2
   2630   18            	inc	R8
   2631   09            	ldn	R9				; Load 3rd character in input noun
   2632   c2 26 63      	lbz	CDLoop2_FoundObject
   2635   f7            	SM				; compare to 3rd character in object name
   2636   c2 26 63      	lbz	CDLoop2_FoundObject
                        CDLoop2_2NoMatch2
   2639   29            	dec	R9
                        CDLoop2_2NoMatch1
   263a   29            	dec	R9				; restore R9 to point to start of input noun
                        CDLoop2Tail
   263b   2f            	dec	RF
   263c   8f            	glo	RF
   263d   ca 26 0e      	lbnz	CDLoop2
                        CDLoop2Done
   2640   9f            	ghi	RF				; D = found_object
   2641   ca 26 4d      	lbnz	CDLoop2Done2
   2644   f8 2f bf f8   	load	rf,CarryDrop7Msg
   2648   c3 af         
   264a   c0 26 9e      	lbr	CDPrintAndReturn		; print: "It's beyond my power to do that."
                        CDLoop2Done2
   264d   8a            	glo	RA				; D = NV[0]
   264e   ff 0a         	smi	10
   2650   ca 26 5b      	lbnz	CDLoop2Done3
   2653   f8 2f bf f8   	load	rf,CarryDrop4Msg
   2657   6c af         
   2659   30 9e         	br	CDPrintAndReturn		; print: "I don't see it here."
                        CDLoop2Done3
   265b   f8 2f bf f8   	load	rf,CarryDrop6Msg
   265f   a3 af         
   2661   30 9e         	br	CDPrintAndReturn		; print: "I'm not carrying it!"
                        
                        CDLoop2_FoundObject
                        	; we found a matching object!
   2663   f8 01         	ldi	1
   2665   bf            	phi	RF				; RF.1 = found_object
   2666   e2            	sex	R2
   2667   8f            	glo	RF
   2668   52            	str	R2
   2669   f8 3d         	ldi	IL
   266b   f7            	SM				; D = j (item index)
   266c   fc 2d         	adi	LOW Array_IA
   266e   ab            	plo	RB
   266f   f8 73         	ldi	HIGH Array_IA
   2671   7c 00         	adci	000H
   2673   bb            	phi	RB				; RB = pointer to IA[j]
   2674   f8 73 b8 f8   	load	r8,Room				; R8 = pointer to 'room'
   2678   6f a8         
   267a   e8            	sex	R8
   267b   8a            	glo	RA				; D = NV[0]
   267c   ff 0a         	smi	10
   267e   3a 90         	bnz	CDDropItem
                        CDTakeItem
   2680   0b            	ldn	RB
   2681   f7            	SM
   2682   ca 26 39      	lbnz	CDLoop2_2NoMatch2		; go back and look for another item with the same name; maybe it's here instead of this one
   2685   f8 ff         	ldi	0FFH
   2687   5b            	str	RB				; IA[j] = -1;
   2688   f8 2f bf f8   	load	rf,CarryDrop3Msg
   268c   57 af         
   268e   30 9e         	br	CDPrintAndReturn		; print: "OK, taken."
                        
                        CDDropItem
   2690   0b            	ldn	RB
   2691   ff ff         	smi	0FFH
   2693   ca 26 39      	lbnz	CDLoop2_2NoMatch2		; not in my inventory; go back and look for another item with the same name
   2696   08            	ldn	R8
   2697   5b            	str	RB				; IA[j] = room;
   2698   f8 2f bf f8   	load	rf,CarryDrop5Msg		; print: "OK, dropped."
   269c   8c af         
                        
                        CDPrintAndReturn
   269e   d4 ff 09      	call	f_msg
   26a1   d5            	retn
                        
                        ;__________________________________________________________________________________________________
                        ; Adventure check_logics() function
                        
                        ; IN:       RA=C[cmd]
                        ; OUT:      D=1 if command is allowed, 0 otherwise
                        ; TRASHED:  R7, R8, RB, RC
                        
                        Do_CheckLogics
   26a2   8a            	glo	RA
   26a3   73            	stxd
   26a4   9a            	ghi	RA
   26a5   73            	stxd				; push RA on the stack
   26a6   f8 05         	ldi	005H
   26a8   a7            	plo	R7				; R7.0 = loop counter
   26a9   1a            	inc	RA
   26aa   1a            	inc	RA				; RA points to C[cmd][2]
   26ab   f8 73 bc f8   	load	rc,Room				; RC = pointer to Room
   26af   6f ac         
                        CLLoop1
   26b1   1c            	inc	RC
   26b2   1c            	inc	RC				; RC = pointer to StateFlags
   26b3   4c            	lda	RC
   26b4   bb            	phi	RB
   26b5   0c            	ldn	RC
   26b6   ab            	plo	RB				; RB = value of StateFlags
   26b7   2c            	dec	RC
   26b8   2c            	dec	RC
   26b9   2c            	dec	RC				; RC = pointer to Room
   26ba   4a            	lda	RA
   26bb   b7            	phi	R7				; R7.1 = ll
   26bc   a8            	plo	R8
                        CLLoop1_1
   26bd   32 c9         	bz	CLLoop1_1Done
   26bf   9b            	ghi	RB
   26c0   f6            	SHR
   26c1   bb            	phi	RB
   26c2   8b            	glo	RB
   26c3   76            	SHRC
   26c4   ab            	plo	RB
   26c5   28            	dec	R8
   26c6   88            	glo	R8
   26c7   30 bd         	br	CLLoop1_1
                        CLLoop1_1Done
   26c9   8b            	glo	RB
   26ca   fa 01         	ANI  001H
   26cc   b8            	phi	R8				; R8.1 = ((state_flags >> ll) && 1)
   26cd   97            	ghi	R7				; D = ll
   26ce   fc 2d         	adi	LOW Array_IA
   26d0   ab            	plo	RB
   26d1   f8 73         	ldi	HIGH Array_IA
   26d3   7c 00         	adci	000H
   26d5   bb            	phi	RB				; RB = pointer to IA[ll]
   26d6   4a            	lda	RA				; D = k
   26d7   c2 27 a9      	LBZ  CLLoop1Tail		; skip this predicate if k == 0
                        CLLoopCheck1
   26da   ec            	sex	RC				; M(R(X)) points to Room
   26db   ff 01         	smi	1
   26dd   ca 26 e9      	lbnz	CLLoopCheck2
   26e0   0b            	ldn	RB
   26e1   ff ff         	smi	0FFH
   26e3   c2 27 a9      	Lbz	CLLoop1Tail		; if (k == 1) allowed = (IA[ll] == -1);
   26e6   c0 27 b7      	Lbr	CLReturnFalse
                        CLLoopCheck2
   26e9   ff 01         	smi	1
   26eb   ca 26 f6      	Lbnz	CLLoopCheck3
   26ee   0b            	ldn	RB
   26ef   f7            	SM
   26f0   c2 27 a9      	lbz	CLLoop1Tail		; if (k == 2) allowed = (IA[ll] == room);
   26f3   c0 27 b7      	lbr	CLReturnFalse
                        CLLoopCheck3
   26f6   ff 01         	smi	1
   26f8   ca 27 09      	lbnz	CLLoopCheck4
   26fb   0b            	ldn	RB
   26fc   f7            	SM
   26fd   c2 27 a9      	lbz	CLLoop1Tail
   2700   0b            	ldn	RB
   2701   ff ff         	smi	0FFH
   2703   c2 27 a9      	lbz	CLLoop1Tail		; if (k == 3) allowed = (IA[ll] == room || IA[ll] == -1);
   2706   c0 27 b7      	lbr	CLReturnFalse
                        CLLoopCheck4
   2709   ff 01         	smi	1
   270b   ca 27 16      	lbnz	CLLoopCheck5
   270e   97            	ghi	R7
   270f   f7            	SM
   2710   c2 27 a9      	lbz	CLLoop1Tail		; if (k == 4) allowed = (room == ll);
   2713   c0 27 b7      	lbr	CLReturnFalse
                        CLLoopCheck5
   2716   ff 01         	smi	1
   2718   ca 27 23      	lbnz	CLLoopCheck6
   271b   0b            	ldn	RB
   271c   f7            	SM
   271d   ca 27 a9      	lbnz	CLLoop1Tail		; if (k == 5) allowed = (IA[ll] != room);
   2720   c0 27 b7      	lbr	CLReturnFalse
                        CLLoopCheck6
   2723   ff 01         	smi	1
   2725   ca 27 31      	lbnz	CLLoopCheck7
   2728   0b            	ldn	RB
   2729   ff ff         	smi	0FFH
   272b   ca 27 a9      	lbnz	CLLoop1Tail		; if (k == 6) allowed = (IA[ll] != -1);
   272e   c0 27 b7      	lbr	CLReturnFalse
                        CLLoopCheck7
   2731   ff 01         	smi	1
   2733   ca 27 3e      	lbnz	CLLoopCheck8
   2736   97            	ghi	R7
   2737   f7            	SM
   2738   ca 27 a9      	lbnz	CLLoop1Tail		; if (k == 7) allowed = (room != ll);
   273b   c0 27 b7      	lbr	CLReturnFalse
                        CLLoopCheck8
   273e   ff 01         	smi	1
   2740   ca 27 4a      	lbnz	CLLoopCheck9
   2743   98            	ghi	R8				; D = ((state_flags >> ll) && 1)
   2744   ca 27 a9      	lbnz	CLLoop1Tail		; if (k == 8) allowed = (state_flags & (1 << ll)) != 0;
   2747   c0 27 b7      	lbr	CLReturnFalse
                        CLLoopCheck9
   274a   ff 01         	smi	1
   274c   ca 27 56      	lbnz	CLLoopCheck10
   274f   98            	ghi	R8				; D = ((state_flags >> ll) && 1)
   2750   c2 27 a9      	lbz	CLLoop1Tail		; if (k == 9) allowed = (state_flags & (1 << ll)) == 0;
   2753   c0 27 b7      	lbr	CLReturnFalse
                        CLLoopCheck10
   2756   ff 01         	smi	1
   2758   ca 27 72      	lbnz	CLLoopCheck11
   275b   f8 73 bb f8   	load	rb,Array_IA			; RB = pointer to IA[0]
   275f   2d ab         
   2761   f8 3d         	ldi	IL
   2763   a8            	plo	R8				; R8 = loop counter IL
                        CLCheck10Loop1
   2764   4b            	lda	RB
   2765   ff ff         	smi	0FFH
   2767   c2 27 a9      	lbz	CLLoop1Tail		; if (k == 10) for (i=0; i<IL; i++) if (IA[i] == -1) allowed = true;
   276a   28            	dec	R8
   276b   88            	glo	R8
   276c   ca 27 64      	lbnz	CLCheck10Loop1
   276f   c0 27 b7      	lbr	CLReturnFalse
                        CLLoopCheck11
   2772   ff 01         	smi	1
   2774   3a 8a         	bnz	CLLoopCheck12
   2776   f8 73 bb f8   	load	rb,Array_IA			; RB = pointer to IA[0]
   277a   2d ab         
   277c   f8 3d         	ldi	IL
   277e   a8            	plo	R8				; R8 = loop counter IL
                        CLCheck11Loop1
   277f   4b            	lda	RB
   2780   ff ff         	smi	0FFH
   2782   32 b7         	bz	CLReturnFalse		; if (k == 11) for (i=0; i<IL; i++) if (IA[i] == -1) allowed = false;
   2784   28            	dec	R8
   2785   88            	glo	R8
   2786   3a 7f         	bnz	CLCheck11Loop1
   2788   30 a9         	br	CLLoop1Tail
                        CLLoopCheck12
   278a   ff 01         	smi	1
   278c   3a 99         	bnz	CLLoopCheck13
   278e   0b            	ldn	RB
   278f   f7            	SM
   2790   32 b7         	bz	CLReturnFalse
   2792   0b            	ldn	RB
   2793   ff ff         	smi	0FFH
   2795   32 b7         	bz	CLReturnFalse		; if (k == 12) allowed = (IA[ll] != -1 && IA[ll] != room);
   2797   30 a9         	br	CLLoop1Tail
                        CLLoopCheck13
   2799   ff 01         	smi	1
   279b   3a a2         	bnz	CLLoopCheck14
   279d   0b            	ldn	RB
   279e   3a a9         	bnz	CLLoop1Tail		; if (k == 13) allowed = (IA[ll] != 0);
   27a0   30 b7         	br	CLReturnFalse
                        CLLoopCheck14
   27a2   ff 01         	smi	1
                        CLDebug1
   27a4   3a a4         	bnz	CLDebug1			; deadlock here if invalid 'k' was found
   27a6   0b            	ldn	RB
   27a7   3a b7         	bnz	CLReturnFalse		; if (k == 14) allowed = (IA[ll] == 0);
                        CLLoop1Tail
   27a9   27            	dec	R7
   27aa   87            	glo	R7
   27ab   ca 26 b1      	lbnz	CLLoop1
                        CLReturnTrue
   27ae   e2            	sex	R2
   27af   12            	inc	R2
   27b0   72            	LDXA
   27b1   ba            	phi	RA
   27b2   f0            	LDX
   27b3   aa            	plo	RA				; restore original value of RA
   27b4   f8 01         	ldi	1
   27b6   d5            	retn				; return false
                        CLReturnFalse
   27b7   e2            	sex	R2
   27b8   12            	inc	R2
   27b9   72            	LDXA
   27ba   ba            	phi	RA
   27bb   f0            	LDX
   27bc   aa            	plo	RA				; restore original value of RA
   27bd   f8 00         	ldi	0
   27bf   d5            	retn				; return false
                        
                        ;__________________________________________________________________________________________________
                        ; Adventure action() function
                        
                        ; IN:       D=ac, RD=pAcVar, R2 = stack pointer
                        ; OUT:      D=1 if action failed, 0 otherwise
                        ; TRASHED:  R1, R7, R8, RC, RD, RF
                        
                        Do_Action
   27c0   52            	str	R2				; save 'ac' variable
   27c1   02            	ldn	R2				; D = ac
   27c2   ff 34         	smi	52
   27c4   3b cf         	bl	DAPrintMessage
   27c6   ff 32         	smi	50
   27c8   33 cf         	BGE	DAPrintMessage
   27ca   fc 32         	adi	50
   27cc   c0 27 ee      	lbr	DACheck52
                        DAPrintMessage
   27cf   fc 34         	adi	52				; D = message number
   27d1   fe            	SHL
   27d2   fc 9d         	adi	LOW Table_MSS
   27d4   a7            	plo	R7
   27d5   f8 41         	ldi	HIGH Table_MSS
   27d7   7c 00         	adci	0
   27d9   b7            	phi	R7
   27da   47            	lda	R7
   27db   bf            	phi	Rf
   27dc   07            	ldn	R7
   27dd   af            	plo	Rf				; RF points to message to print
   27de   d4 ff 09      	call	f_msg
   27e1   f8 0d         	ldi	cr
   27e3   d4 ff 03      	call	f_type
   27e6   f8 0a         	ldi	lf
   27e8   d4 ff 03      	call	f_type				; print '\r\n'
   27eb   f8 00         	ldi	0
   27ed   d5            	retn					; return false (action didn't fail)
                        DACheck52
   27ee   ca 28 2b      	lbnz	DACheck53
   27f1   f8 73 b7 f8   	load	r7,Array_IA			; R7 = pointer to IA[0]
   27f5   2d a7         
   27f7   f8 3d         	ldi	IL
   27f9   a8            	plo	R8				; R8.0 = IL
   27fa   f8 00         	ldi	0
   27fc   ac            	plo	RC
                        DACheck52Loop
   27fd   47            	lda	R7				; D = IA[i]
   27fe   ff ff         	smi	0FFH
   2800   3a 03         	bnz	DACheck52Next
   2802   1c            	inc	RC				; j++
                        DACheck52Next
   2803   28            	dec	R8
   2804   88            	glo	R8
   2805   ca 27 fd      	lbnz	DACheck52Loop
   2808   8c            	glo	RC
   2809   ff 05         	smi	MX
   280b   cb 28 1a      	lbnf	DACheck52TakeItem		; BL
   280e   f8 2f bf f8   	load	rf,CarryDrop2Msg
   2812   2c af         
   2814   d4 ff 09      	call	f_msg				; print: "I can't. I'm carrying too much!"
   2817   f8 01         	ldi	1
   2819   d5            	retn					; return true
                        DACheck52TakeItem
   281a   d4 21 76      	call	Sub_GetActionVariable		; call get_action_variable()
   281d   fc 2d         	adi	LOW Array_IA
   281f   a7            	plo	R7
   2820   f8 73         	ldi	HIGH Array_IA
   2822   7c 00         	adci	0
   2824   b7            	phi	R7				; R7 = pointer to IA[get_action_variable(pAcVar)]
   2825   f8 ff         	ldi	0FFH
   2827   57            	str	R7
                        DAReturnFalse1
   2828   f8 00         	ldi	0
   282a   d5            	retn					; return false (action didn't fail)
                        DACheck53
   282b   ff 01         	smi	1
   282d   ca 28 46      	lbnz	DACheck54
   2830   f8 73 b8 f8   	load	r8,Room
   2834   6f a8         
   2836   d4 21 76      	call	Sub_GetActionVariable		; call get_action_variable()
   2839   fc 2d         	adi	LOW Array_IA
   283b   a7            	plo	R7
   283c   f8 73         	ldi	HIGH Array_IA
   283e   7c 00         	adci	0
   2840   b7            	phi	R7				; R7 = pointer to IA[get_action_variable(pAcVar)]
   2841   08            	ldn	R8
   2842   57            	str	R7				; if (ac == 53) IA[get_action_variable(pAcVar)] = room;
   2843   c0 28 28      	lbr	DAReturnFalse1
                        DACheck54
   2846   ff 01         	smi	1
   2848   ca 28 58      	lbnz	DACheck55
   284b   f8 73 b8 f8   	load	r8,Room
   284f   6f a8         
   2851   d4 21 76      	call	Sub_GetActionVariable		; call get_action_variable()
   2854   58            	str	R8				; if (ac == 54) room = get_action_variable(pAcVar);
   2855   c0 28 28      	lbr	DAReturnFalse1
                        DACheck55
   2858   ff 01         	smi	1
   285a   ca 28 60      	lbnz	DACheck56
   285d   c0 28 ae      	lbr	DAAction59			; if (ac == 55 || ac == 59) IA[get_action_variable(pAcVar)] = 0;
                        DACheck56
   2860   ff 01         	smi	1
   2862   ca 28 71      	lbnz	DACheck57
   2865   f8 73 b7 f8   	load	r7,Darkflag
   2869   6e a7         
   286b   f8 01         	ldi	1
   286d   57            	str	R7				; if (ac == 56) is_dark = true;
   286e   c0 28 28      	lbr	DAReturnFalse1
                        DACheck57
   2871   ff 01         	smi	1
   2873   ca 28 82      	lbnz	DACheck58
   2876   f8 73 b7 f8   	load	r7,Darkflag
   287a   6e a7         
   287c   f8 00         	ldi	0
   287e   57            	str	R7				; if (ac == 57) is_dark = false;
   287f   c0 28 28      	lbr	DAReturnFalse1
                        DACheck58
   2882   ff 01         	smi	1
   2884   3a aa         	bnz	DACheck59
   2886   f8 73 b7 f8   	load	r7,StateFlags
   288a   71 a7         
   288c   f8 01         	ldi	1
   288e   b8            	phi	R8				; R8.1 = shift register byte
   288f   d4 21 76      	call	Sub_GetActionVariable				; call get_action_variable()
   2892   ff 08         	smi	8
   2894   33 99         	BGE  DACheck58Loop
   2896   17            	inc	R7				; R7 points to StateFlags+1
   2897   fc 08         	adi	8
                        DACheck58Loop
   2899   32 a3         	bz	DACheck58LoopDone
   289b   a8            	plo	R8				; R8.0 is number of bits remaining to shift
   289c   98            	ghi	R8
   289d   fe            	SHL				; shift one bit left
   289e   b8            	phi	R8
   289f   28            	dec	R8
   28a0   88            	glo	R8
   28a1   30 99         	br	DACheck58Loop
                        DACheck58LoopDone
   28a3   98            	ghi	R8				; R8 is byte to OR with StateFlags
   28a4   e7            	sex	R7
   28a5   f1            	OR				; if (ac == 58) state_flags |= 1 << get_action_variable(pAcVar);
   28a6   57            	str	R7
   28a7   c0 28 28      	lbr	DAReturnFalse1
                        DACheck59
   28aa   ff 01         	smi	1
   28ac   3a bf         	bnz	DACheck60
                        DAAction59
   28ae   d4 21 76      	call	Sub_GetActionVariable				; call get_action_variable()
   28b1   fc 2d         	adi	LOW Array_IA
   28b3   a7            	plo	R7
   28b4   f8 73         	ldi	HIGH Array_IA
   28b6   7c 00         	adci	000H
   28b8   b7            	phi	R7				; R7 = pointer to IA[get_action_variable(pAcVar)]
   28b9   f8 00         	ldi	0
   28bb   57            	str	R7				; if (ac == 55 || ac == 59) IA[get_action_variable(pAcVar)] = 0;
   28bc   c0 28 28      	lbr	DAReturnFalse1
                        DACheck60
   28bf   ff 01         	smi	1
   28c1   ca 28 ea      	lbnz	DACheck61
   28c4   f8 73 b7 f8   	load	r7,StateFlags
   28c8   71 a7         
   28ca   f8 01         	ldi	1
   28cc   b8            	phi	R8				; R8.1 = shift register byte
   28cd   d4 21 76      	call	Sub_GetActionVariable				; call get_action_variable()
   28d0   ff 08         	smi	8
   28d2   33 d7         	BGE  DACheck60Loop
   28d4   17            	inc	R7				; R7 points to StateFlags+1
   28d5   fc 08         	adi	8
                        DACheck60Loop
   28d7   c2 28 e3      	lbz	DACheck60LoopDone
   28da   a8            	plo	R8				; R8.0 is number of bits remaining to shift
   28db   98            	ghi	R8
   28dc   fe            	SHL				; shift one bit left
   28dd   b8            	phi	R8
   28de   28            	dec	R8
   28df   88            	glo	R8
   28e0   c0 28 d7      	lbr	DACheck60Loop
                        DACheck60LoopDone
   28e3   98            	ghi	R8				; R8 is byte to XOR with StateFlags
   28e4   e7            	sex	R7
   28e5   f3            	XOR				; if (ac == 60) state_flags ^= 1 << get_action_variable(pAcVar);
   28e6   57            	str	R7
   28e7   c0 28 28      	lbr	DAReturnFalse1
                        DACheck61
   28ea   ff 01         	smi	1
   28ec   ca 29 08      	lbnz	DACheck62			; if (ac == 61)
   28ef   f8 73 b7 f8   	load	r7,Darkflag
   28f3   6e a7         
   28f5   f8 00         	ldi	0
   28f7   57            	str	R7				; is_dark = false;
   28f8   17            	inc	R7
   28f9   f8 21         	ldi	RL-1
   28fb   57            	str	R7				; room = RL-1;
   28fc   f8 2f bf f8   	load	rf,Action1Msg
   2900   ef af         
   2902   d4 ff 09      	call	f_msg				; print: "I'm dead..."
   2905   c0 2a cf      	LBR	DADoLook			; look()
                        DACheck62
   2908   ff 01         	smi	1
   290a   ca 29 1f      	lbnz	DACheck63
   290d   d4 21 76      	call	Sub_GetActionVariable		; call get_action_variable()
   2910   fc 2d         	adi	LOW Array_IA
   2912   a7            	plo	R7
   2913   f8 73         	ldi	HIGH Array_IA
   2915   7c 00         	adci	0
   2917   b7            	phi	R7				; R7 = pointer to IA[get_action_variable(pAcVar)]
   2918   d4 21 76      	call	Sub_GetActionVariable		; call get_action_variable()
   291b   57            	str	R7				; if (ac == 62) { i = get_action_variable(pAcVar); IA[i] = (get_action_variable(pAcVar)); }
   291c   c0 28 28      	lbr	DAReturnFalse1
                        DACheck63
   291f   ff 01         	smi	1
   2921   ca 29 3e      	LBNZ	DACheck64
   2924   f8 30 bf f8   	load	rf,Action2Msg
   2928   08 af         
   292a   d4 ff 09      	call	f_msg				; print "The game is now over.\nAnother game? "
   292d   d4 2a ee      	call	Do_YesNo			; D = 0 if No, 1 if Yes
   2930   fd 6d         	SDI	LOW Endflag
   2932   ac            	plo	RC
   2933   f8 73         	ldi	HIGH Endflag
   2935   7f 00         	SMBI	0
   2937   bc            	phi	RC
   2938   f8 01         	ldi	1
   293a   5c            	str	RC				; set Loadflag or Endflag to 1
   293b   c0 29 b5      	lbr	DAReturnFalse2
                        DACheck64
   293e   ff 01         	smi	1
   2940   3a 45         	bnz	DACheck65
   2942   c0 2a cf      	LBR	DADoLook			; if (ac == 64) look();
                        DACheck65
   2945   ff 01         	smi	1
   2947   ca 29 b8      	lbnz	DACheck66
   294a   bc            	phi	RC				; RC.1 = count of treasures
   294b   f8 5c b7 f8   	load	r7,Table_IAS
   294f   1a a7         
   2951   f8 73 b8 f8   	load	r8,Array_IA
   2955   2d a8         
   2957   f8 3d         	ldi	IL
   2959   ac            	plo	RC				; RC.0 = item loop counter
                        DAAction65Loop
   295a   47            	lda	R7
   295b   bd            	phi	RD
   295c   47            	lda	R7
   295d   ad            	plo	RD				; RD = pointer to IAS[i][0]
   295e   48            	lda	R8				; D = IA[i]
   295f   ff 03         	smi	TR				; TR = Treasure Room
   2961   ca 29 6d      	lbnz	DAAction65LoopTail
   2964   0d            	ldn	RD
   2965   ff 2a         	smi	'*'
   2967   3a 6d         	bnz	DAAction65LoopTail
   2969   9c            	ghi	RC
   296a   fc 01         	adi	001H
   296c   bc            	phi	RC				; j++
                        DAAction65LoopTail
   296d   2c            	dec	RC
   296e   8c            	glo	RC
   296f   ca 29 5a      	lbnz	DAAction65Loop
   2972   f8 30 bf f8   	load	rf,Action3_2Msg
   2976   52 af         
   2978   9c            	ghi	RC
   2979   d4 20 28      	call	Print2Digit			; convert # of treasures to 2-digit number
   297c   f8 30 bf f8   	load	rf,Action3_3Msg
   2980   8b af         
   2982   9c            	ghi	RC
   2983   fc b1         	adi	LOW ScoreTable
   2985   ad            	plo	RD
   2986   f8 2b         	ldi	HIGH ScoreTable
   2988   7c 00         	adci	0
   298a   bd            	phi	RD
   298b   0d            	ldn	RD
   298c   d4 20 28      	call	Print2Digit			; convert # of treasures to 2-digit number
   298f   f8 30 bf f8   	load	rf,Action3_1Msg
   2993   3d af         
   2995   d4 ff 09      	call	f_msg				; print "I've stored XX treasures.  On a scale of 0 to 99, that rates a XX."
   2998   9c            	ghi	RC
   2999   ff 0d         	smi	TT
   299b   ca 29 b5      	lbnz	DAReturnFalse2			; continue if not a perfect score
   299e   f8 30 bf f8   	load	rf,Action4Msg
   29a2   95 af         
   29a4   d4 ff 09      	call	f_msg				; print "Congratulations! You scored a Perfect Game!\r\nThe game is now over.\r\nAnother game? "
   29a7   d4 2a ee      	call	Do_YesNo			; D = 0 if No, 1 if Yes
   29aa   fd 6d         	SDI	LOW Endflag
   29ac   ac            	plo	RC
   29ad   f8 73         	ldi	HIGH Endflag
   29af   7f 00         	SMBI	0
   29b1   bc            	phi	RC
   29b2   f8 01         	ldi	1
   29b4   5c            	str	RC				; set Loadflag or Endflag to 1
                        DAReturnFalse2
   29b5   f8 00         	ldi	0
   29b7   d5            	retn					; return false (action didn't fail)
                        DACheck66
   29b8   ff 01         	smi	1
   29ba   ca 2a 52      	lbnz	DACheck67
   29bd   ac            	plo	RC				; RC.0 = line length
   29be   bc            	phi	RC				; RC.1 = not empty flag
   29bf   f8 31 bf f8   	load	rf,Action5Msg
   29c3   47 af         
   29c5   d4 ff 09      	call	f_msg				; print "I'm carrying:\n"
   29c8   f8 5c b1 f8   	load	r1,Table_IAS
   29cc   1a a1         
   29ce   f8 00         	ldi	0
   29d0   ad            	plo	RD				; RD.0 = item index
                        DAAction66Loop1
   29d1   8d            	glo	RD
   29d2   fc 2d         	adi	LOW Array_IA
   29d4   a7            	plo	R7
   29d5   f8 73         	ldi	HIGH Array_IA
   29d7   7c 00         	adci	000H
   29d9   b7            	phi	R7				; R7 = pointer to IA[i]
   29da   41            	lda	R1
   29db   b8            	phi	R8
   29dc   41            	lda	R1
   29dd   a8            	plo	R8				; R8 = pointer to IAS[i][0]
   29de   47            	lda	R7				; D = IA[i]
   29df   ff ff         	smi	0FFH
   29e1   ca 2a 32      	lbnz	DAAction66Loop1Tail	; skip this item if not in our inventory
   29e4   9c            	ghi	RC
   29e5   fc 01         	adi	001H
   29e7   bc            	phi	RC				; not empty flag is true
   29e8   8c            	glo	RC
   29e9   bd            	phi	RD				; temporarily store current line length
                        	; figure out how long this item description is
                        DAAction66Loop1_1
   29ea   48            	lda	R8
   29eb   c2 29 f7      	lbz	DAAction66Loop1_1Done
   29ee   ff 2f         	smi	'/'
   29f0   c2 29 f7      	lbz	DAAction66Loop1_1Done
   29f3   1c            	inc	RC				; increment line length
   29f4   c0 29 ea      	lbr	DAAction66Loop1_1
                        DAAction66Loop1_1Done
   29f7   8c            	glo	RC				; RC is current line length + item description length
   29f8   fc 03         	adi	3
   29fa   ff 4f         	smi	MAXLINE
   29fc   cb 2a 0c      	lbnf	DAAction66SkipLinefeed		; BL
   29ff   f8 00         	ldi	0
   2a01   bd            	phi	RD				; linelen = 0
   2a02   f8 0d         	ldi	cr
   2a04   d4 ff 03      	call	f_type
   2a07   f8 0a         	ldi	lf
   2a09   d4 ff 03      	call	f_type				; print "\r\n"
                        DAAction66SkipLinefeed
   2a0c   9d            	ghi	RD
   2a0d   ac            	plo	RC				; restore original line length value
   2a0e   21            	dec	R1
   2a0f   21            	dec	R1
   2a10   41            	lda	R1
   2a11   b8            	phi	R8
   2a12   41            	lda	R1
   2a13   a8            	plo	R8				; R8 = pointer to IAS[i][0] (again)
                        DAAction66Loop1_2			; print the item description
   2a14   48            	lda	R8
   2a15   c2 2a 26      	lbz	DAAction66Loop1_2Done
   2a18   ff 2f         	smi	'/'
   2a1a   c2 2a 26      	lbz	DAAction66Loop1_2Done
   2a1d   1c            	inc	RC				; increment line length
   2a1e   fc 2f         	adi	'/'
   2a20   d4 ff 03      	call	f_type				; print one character
   2a23   c0 2a 14      	lbr	DAAction66Loop1_2
                        DAAction66Loop1_2Done
   2a26   f8 2e         	ldi	'.'
   2a28   d4 ff 03      	call	f_type
   2a2b   f8 20         	ldi	' '
   2a2d   d4 ff 03      	call	f_type				; print ". "
   2a30   1c            	inc	RC
   2a31   1c            	inc	RC				; linelen += 2
                        DAAction66Loop1Tail
   2a32   1d            	inc	RD
   2a33   8d            	glo	RD
   2a34   ff 3d         	smi	IL
   2a36   ca 29 d1      	lbnz	DAAction66Loop1
   2a39   9c            	ghi	RC
   2a3a   ca 2a 46      	LBNZ	DAAction66NotEmpty
   2a3d   f8 31 bf f8   	load	rf,Action6Msg
   2a41   64 af         
   2a43   d4 ff 09      	call	f_msg				; print "Nothing!"
                        DAAction66NotEmpty
   2a46   f8 2c bf f8   	load	rf,NewlineMsg			; print "\r\n"
   2a4a   46 af         
   2a4c   d4 ff 09      	call	f_msg
   2a4f   c0 2a cc      	lbr	DAReturnFalse3
                        DACheck67
   2a52   ff 01         	smi	1
   2a54   3a 63         	bnz	DACheck68
   2a56   f8 73 b7 f8   	load	r7,(StateFlags+1)
   2a5a   72 a7         
   2a5c   07            	ldn	R7
   2a5d   f9 01         	ORI	1
   2a5f   57            	str	R7				; if (ac == 67) state_flags |= 1;
   2a60   c0 2a cc      	lbr	DAReturnFalse3
                        DACheck68
   2a63   ff 01         	smi	1
   2a65   ca 2a 75      	lbnz	DACheck69
   2a68   f8 73 b7 f8   	load	r7,(StateFlags+1)
   2a6c   72 a7         
   2a6e   07            	ldn	R7
   2a6f   fb 01         	XRI	1
   2a71   57            	str	R7				; if (ac == 68) state_flags ^= 1;
   2a72   c0 2a cc      	lbr	DAReturnFalse3
                        DACheck69
   2a75   ff 01         	smi	1
   2a77   3a 8e         	bnz	DACheck70
   2a79   f8 73 b7 f8   	load	r7,Array_IA+9
   2a7d   36 a7         
   2a7f   f8 ff         	ldi	0FFH
   2a81   57            	str	R7
   2a82   f8 73 b7 f8   	load	r7,LampOil
   2a86   70 a7         
   2a88   f8 7d         	ldi	LI
   2a8a   57            	str	R7				; if (ac == 69) { lamp_oil = LT; IA[9] = -1; }
   2a8b   c0 2a cc      	lbr	DAReturnFalse3
                        DACheck70
   2a8e   ff 01         	smi	1
   2a90   3a 98         	bnz	DACheck71
   2a92   d4 20 4e      	call	ClearScreen			; if (ac == 70) clrscr();
   2a95   c0 2a cc      	lbr	DAReturnFalse3
                        DACheck71
   2a98   ff 01         	smi	1
   2a9a   ca 2a ac      	lbnz	DACheck72
   2a9d   d4 2b 2e      	call	Do_SaveGame			; call SaveGame function
   2aa0   f8 31 bf f8   	load	rf,Action7Msg
   2aa4   6d af         
   2aa6   d4 ff 09      	call	f_msg				; print "Game state has been saved in upper memory."
   2aa9   c0 2a cc      	lbr	DAReturnFalse3
                        DACheck72
   2aac   ff 01         	smi	1
                        DADebug1
   2aae   3a ae         	bnz	DADebug1			; deadlock here if invalid 'ac' was found
   2ab0   d4 21 76      	call	Sub_GetActionVariable				; j = get_action_variable()
   2ab3   fc 2d         	adi	LOW Array_IA
   2ab5   a7            	plo	R7
   2ab6   f8 73         	ldi	HIGH Array_IA
   2ab8   7c 00         	ADCI	0
   2aba   b7            	phi	R7				; R7 = pointer to IA[j]
   2abb   d4 21 76      	call	Sub_GetActionVariable				; p = get_action_variable()
   2abe   fc 2d         	adi	LOW Array_IA
   2ac0   a8            	plo	R8
   2ac1   f8 73         	ldi	HIGH Array_IA
   2ac3   7c 00         	ADCI	0
   2ac5   b8            	phi	R8				; R8 = pointer to IA[p]
   2ac6   07            	ldn	R7
   2ac7   ac            	plo	RC				; RC.0 = i = IA[j]
   2ac8   08            	ldn	R8
   2ac9   57            	str	R7				; IA[j] = IA[p]
   2aca   8c            	glo	RC
   2acb   58            	str	R8				; IA[p] = i
                        
                        DAReturnFalse3
   2acc   f8 00         	ldi	0
   2ace   d5            	retn					; return false (action didn't fail)
                        
                        DADoLook
   2acf   89            	glo	R9				; push R9, RA, and RB on the stack
   2ad0   73            	stxd
   2ad1   99            	ghi	R9
   2ad2   73            	stxd
   2ad3   8a            	glo	RA
   2ad4   73            	stxd
   2ad5   9a            	ghi	RA
   2ad6   73            	stxd
   2ad7   8b            	glo	RB
   2ad8   73            	stxd
   2ad9   9b            	ghi	RB
   2ada   73            	stxd
   2adb   d4 23 67      	call	Do_Look
   2ade   12            	inc	R2
   2adf   42            	lda	R2
   2ae0   bb            	phi	RB
   2ae1   42            	lda	R2
   2ae2   ab            	plo	RB
   2ae3   42            	lda	R2
   2ae4   ba            	phi	RA
   2ae5   42            	lda	R2
   2ae6   aa            	plo	RA
   2ae7   42            	lda	R2
   2ae8   b9            	phi	R9
   2ae9   02            	ldn	R2
   2aea   a9            	plo	R9
   2aeb   c0 2a cc      	lbr	DAReturnFalse3
                        
                        ;__________________________________________________________________________________________________
                        ; Adventure yes_no() function
                        
                        ; IN:       N/A
                        ; OUT:      D=1 if YES, 0 if NO
                        ; TRASHED:  R7, R8, RF
                        
                        Do_YesNo
                        	; wait for key press
   2aee   9e            	ghi	re
   2aef   fa fe         	ani	0feh
   2af1   be            	phi	re
   2af2   d4 ff 06      	call	f_read
   2af5   bf            	phi	rf
   2af6   9e            	ghi	re
   2af7   f9 01         	ori	001h
   2af9   be            	phi	re
   2afa   9f            	ghi	rf
                        	; make character be uppercase
   2afb   f8 df         	ldi	0DFH
   2afd   52            	str	R2
   2afe   9f            	ghi	RF
   2aff   f2            	and
                        	; check for Y and N
   2b00   ff 4e         	smi	'N'
   2b02   32 0c         	bz	YN_No
   2b04   ff 0b         	smi	'Y'-'N'
   2b06   c2 2b 1d      	lbz	YN_Yes
   2b09   c0 2a ee      	lbr	Do_YesNo
                        YN_No
   2b0c   9f            	ghi	RF
   2b0d   d4 ff 03      	call	f_type
   2b10   f8 0d         	ldi	cr
   2b12   d4 ff 03      	call	f_type
   2b15   f8 0a         	ldi	lf
   2b17   d4 ff 03      	call	f_type				; print 'n\r\n'
   2b1a   f8 00         	ldi	0
   2b1c   d5            	retn					; return 0
                        YN_Yes
   2b1d   9f            	ghi	RF
   2b1e   d4 ff 03      	call	f_type
   2b21   f8 0d         	ldi	cr
   2b23   d4 ff 03      	call	f_type
   2b26   f8 0a         	ldi	lf
   2b28   d4 ff 03      	call	f_type				; print 'y\r\n'
   2b2b   f8 01         	ldi	1
   2b2d   d5            	retn					; return 1
                        
                        ;__________________________________________________________________________________________________
                        ; SaveGame function to store game state in file
                        
                        ; IN:       N/A
                        ; OUT:      N/A
                        ; TRASHED:  R7, RC, RD, RF
                        
                        Do_SaveGame:
   2b2e   f8 72 bf f8   	load	rf,SavePath
   2b32   cc af         
   2b34   f8 73 bd f8   	load	rd,SaveFiledes		; savefile descriptor
   2b38   bd ad         
   2b3a   f8 03         	ldi	O_CREAT OR O_TRUNC	; (create, truncate, no append) flags
   2b3c   a7            	plo	r7
   2b3d   d4 03 06      	call	O_OPEN			; attempt to open file
   2b40   cb 2b 69      	lbnf	SaveOpened		; DF=0, file was opened
   2b43   d4 ff 66      	call	f_inmsg
   2b46   53 61 76 65   	db	'Save file could not be created.',cr,lf,0
   2b4a   20 66 69 6c   
   2b4e   65 20 63 6f   
   2b52   75 6c 64 20   
   2b56   6e 6f 74 20   
   2b5a   62 65 20 63   
   2b5e   72 65 61 74   
   2b62   65 64 2e 0d   
   2b66   0a 00         
   2b68   d5            	retn
                        ;
                        SaveOpened:
   2b69   f8 00 bc f8   	load	rc,SaveLength
   2b6d   46 ac         
   2b6f   f8 73 bf f8   	load	rf,SaveStart
   2b73   2d af         
   2b75   f8 73 bd f8   	load	rd,SaveFiledes
   2b79   bd ad         
   2b7b   d4 03 0c      	call	O_WRITE			; write the save file
   2b7e   c3 2b 8b      	lbdf	WriteError		; DF=1, write error
                        CloseSaveFile:
   2b81   f8 73 bf f8   	load	rf,SaveFiledes
   2b85   bd af         
   2b87   d4 03 12      	call	O_CLOSE			; close the image file
   2b8a   d5            	retn
                        WriteError:
   2b8b   d4 ff 66      	call	f_inmsg
   2b8e   47 61 6d 65   	db	'Game state could not be saved.',cr,lf,0
   2b92   20 73 74 61   
   2b96   74 65 20 63   
   2b9a   6f 75 6c 64   
   2b9e   20 6e 6f 74   
   2ba2   20 62 65 20   
   2ba6   73 61 76 65   
   2baa   64 2e 0d 0a   
   2bae   00            
   2baf   30 81         	br	CloseSaveFile
                        ;
                        ;__________________________________________________________________________________________________
                        ; Read-only Data
                        
   2bb1   00 07 0f 16   ScoreTable      DB	0, 7, 15, 22, 30, 38, 45, 53, 60, 68, 76, 83, 91, 99
   2bb5   1e 26 2d 35   
   2bb9   3c 44 4c 53   
   2bbd   5b 63         
   2bbf   1b 5b 23 33   ClsMsg		DB	esc,"[#39;7m",esc,"[H",esc,"[J", 0
   2bc3   39 3b 37 6d   
   2bc7   1b 5b 48 1b   
   2bcb   5b 4a 00      
   2bce   0d 0a 0a 1b   StartingMsg     DB	cr,lf,lf,esc,"[1;37mWelcome To ",cr,lf," Adventure+ ",cr,lf," ",esc,"[44m(v1.2 2020-04-20)",esc,"[0m",cr,lf,lf
   2bd2   5b 31 3b 33   
   2bd6   37 6d 57 65   
   2bda   6c 63 6f 6d   
   2bde   65 20 54 6f   
   2be2   20 0d 0a 20   
   2be6   41 64 76 65   
   2bea   6e 74 75 72   
   2bee   65 2b 20 0d   
   2bf2   0a 20 1b 5b   
   2bf6   34 34 6d 28   
   2bfa   76 31 2e 32   
   2bfe   20 32 30 32   
   2c02   30 2d 30 34   
   2c06   2d 32 30 29   
   2c0a   1b 5b 30 6d   
   2c0e   0d 0a 0a      
   2c11   42 79 3a 20   		DB	"By: Scott Adams, Morten Lohre, and Richard Goedeken",cr,lf
   2c15   53 63 6f 74   
   2c19   74 20 41 64   
   2c1d   61 6d 73 2c   
   2c21   20 4d 6f 72   
   2c25   74 65 6e 20   
   2c29   4c 6f 68 72   
   2c2d   65 2c 20 61   
   2c31   6e 64 20 52   
   2c35   69 63 68 61   
   2c39   72 64 20 47   
   2c3d   6f 65 64 65   
   2c41   6b 65 6e 0d   
   2c45   0a            
   2c46   0d 0a 00      NewlineMsg      DB	cr,lf, 0
   2c49   1b 5b 33 36   LoadQestion     DB	esc,"[36m",cr,lf,"Load saved game (Y or N)?",esc,"[0m ", 0
   2c4d   6d 0d 0a 4c   
   2c51   6f 61 64 20   
   2c55   73 61 76 65   
   2c59   64 20 67 61   
   2c5d   6d 65 20 28   
   2c61   59 20 6f 72   
   2c65   20 4e 29 3f   
   2c69   1b 5b 30 6d   
   2c6d   20 00         
   2c6f   1b 5b 31 6d   LoadFailedMsg   DB	esc,"[1mSorry, but no saved game data was found.",cr,lf,esc,"[0;36mPress a key to continue...",esc,"[0m",cr,lf,0
   2c73   53 6f 72 72   
   2c77   79 2c 20 62   
   2c7b   75 74 20 6e   
   2c7f   6f 20 73 61   
   2c83   76 65 64 20   
   2c87   67 61 6d 65   
   2c8b   20 64 61 74   
   2c8f   61 20 77 61   
   2c93   73 20 66 6f   
   2c97   75 6e 64 2e   
   2c9b   0d 0a 1b 5b   
   2c9f   30 3b 33 36   
   2ca3   6d 50 72 65   
   2ca7   73 73 20 61   
   2cab   20 6b 65 79   
   2caf   20 74 6f 20   
   2cb3   63 6f 6e 74   
   2cb7   69 6e 75 65   
   2cbb   2e 2e 2e 1b   
   2cbf   5b 30 6d 0d   
   2cc3   0a 00         
   2cc5   1b 5b 33 31   LampEmptyMsg    DB	esc,"[31mYour lamp has run out of oil!",esc,"[0m",cr,lf, 0
   2cc9   6d 59 6f 75   
   2ccd   72 20 6c 61   
   2cd1   6d 70 20 68   
   2cd5   61 73 20 72   
   2cd9   75 6e 20 6f   
   2cdd   75 74 20 6f   
   2ce1   66 20 6f 69   
   2ce5   6c 21 1b 5b   
   2ce9   30 6d 0d 0a   
   2ced   00            
   2cee   1b 5b 33 31   LampLow1Msg     DB	esc,"[31mYour lamp will run out of oil in ",0
   2cf2   6d 59 6f 75   
   2cf6   72 20 6c 61   
   2cfa   6d 70 20 77   
   2cfe   69 6c 6c 20   
   2d02   72 75 6e 20   
   2d06   6f 75 74 20   
   2d0a   6f 66 20 6f   
   2d0e   69 6c 20 69   
   2d12   6e 20 00      
   2d15   20 74 75 72   LampLow2Msg     DB	" turns!",esc,"[0m",cr,lf,0
   2d19   6e 73 21 1b   
   2d1d   5b 30 6d 0d   
   2d21   0a 00         
   2d23   0d 0a 1b 5b   InputPromptMsg  DB	cr,lf,esc,"[36mTell me what to do? ",esc,"[0m",0
   2d27   33 36 6d 54   
   2d2b   65 6c 6c 20   
   2d2f   6d 65 20 77   
   2d33   68 61 74 20   
   2d37   74 6f 20 64   
   2d3b   6f 3f 20 1b   
   2d3f   5b 30 6d 00   
   2d43   1b 5b 31 6d   InputError1Msg  DB	esc,"[1mI don't know how to ",0
   2d47   49 20 64 6f   
   2d4b   6e 27 74 20   
   2d4f   6b 6e 6f 77   
   2d53   20 68 6f 77   
   2d57   20 74 6f 20   
   2d5b   00            
   2d5c   21 1b 5b 30   InputError2Msg  DB	"!",esc,"[0m",cr,lf, 0
   2d60   6d 0d 0a 00   
   2d64   1b 5b 31 6d   InputError3Msg  DB	esc,"[1mI don't know what a ", 0
   2d68   49 20 64 6f   
   2d6c   6e 27 74 20   
   2d70   6b 6e 6f 77   
   2d74   20 77 68 61   
   2d78   74 20 61 20   
   2d7c   00            
   2d7d   20 69 73 21   InputError4Msg  DB	" is!",esc,"[0m",cr,lf, 0
   2d81   1b 5b 30 6d   
   2d85   0d 0a 00      
   2d88   1b 5b 31 3b   Look1Msg	DB	esc,"[1;31mI can't see.  It's too dark!",esc,"[0m",cr,lf,0
   2d8c   33 31 6d 49   
   2d90   20 63 61 6e   
   2d94   27 74 20 73   
   2d98   65 65 2e 20   
   2d9c   20 49 74 27   
   2da0   73 20 74 6f   
   2da4   6f 20 64 61   
   2da8   72 6b 21 1b   
   2dac   5b 30 6d 0d   
   2db0   0a 00         
   2db2   49 27 6d 20   Look2Msg	DB	"I'm in a ", 0
   2db6   69 6e 20 61   
   2dba   20 00         
   2dbc   0d 0a 0a 1b   Look3Msg	DB	cr,lf,lf,esc,"[1;34mVisible Items Here:",esc,"[0m",cr,lf,0
   2dc0   5b 31 3b 33   
   2dc4   34 6d 56 69   
   2dc8   73 69 62 6c   
   2dcc   65 20 49 74   
   2dd0   65 6d 73 20   
   2dd4   48 65 72 65   
   2dd8   3a 1b 5b 30   
   2ddc   6d 0d 0a 00   
   2de0   0d 0a 1b 5b   Look4Msg	DB	cr,lf,esc,"[1;34mObvious Exits:",esc,"[0m",cr,lf,"   ", 0
   2de4   31 3b 33 34   
   2de8   6d 4f 62 76   
   2dec   69 6f 75 73   
   2df0   20 45 78 69   
   2df4   74 73 3a 1b   
   2df8   5b 30 6d 0d   
   2dfc   0a 20 20 20   
   2e00   00            
   2e01   1b 5b 33 36   Turn1Msg	DB	esc,"[36mWhere do you want me to go? Give me a direction too.",esc,"[0m",cr,lf,0
   2e05   6d 57 68 65   
   2e09   72 65 20 64   
   2e0d   6f 20 79 6f   
   2e11   75 20 77 61   
   2e15   6e 74 20 6d   
   2e19   65 20 74 6f   
   2e1d   20 67 6f 3f   
   2e21   20 47 69 76   
   2e25   65 20 6d 65   
   2e29   20 61 20 64   
   2e2d   69 72 65 63   
   2e31   74 69 6f 6e   
   2e35   20 74 6f 6f   
   2e39   2e 1b 5b 30   
   2e3d   6d 0d 0a 00   
   2e41   1b 5b 31 3b   Turn2Msg	DB	esc,"[1;31mWarning: it's dangerous to move in the dark!",esc,"[0m",cr,lf,0
   2e45   33 31 6d 57   
   2e49   61 72 6e 69   
   2e4d   6e 67 3a 20   
   2e51   69 74 27 73   
   2e55   20 64 61 6e   
   2e59   67 65 72 6f   
   2e5d   75 73 20 74   
   2e61   6f 20 6d 6f   
   2e65   76 65 20 69   
   2e69   6e 20 74 68   
   2e6d   65 20 64 61   
   2e71   72 6b 21 1b   
   2e75   5b 30 6d 0d   
   2e79   0a 00         
   2e7b   1b 5b 33 31   Turn3Msg	DB	esc,"[31mI can't go in that direction.",esc,"[0m",cr,lf,0
   2e7f   6d 49 20 63   
   2e83   61 6e 27 74   
   2e87   20 67 6f 20   
   2e8b   69 6e 20 74   
   2e8f   68 61 74 20   
   2e93   64 69 72 65   
   2e97   63 74 69 6f   
   2e9b   6e 2e 1b 5b   
   2e9f   30 6d 0d 0a   
   2ea3   00            
   2ea4   1b 5b 31 3b   Turn4Msg	DB	esc,"[1;31mI fell down and broke my neck.",esc,"[0m",cr,lf,0
   2ea8   33 31 6d 49   
   2eac   20 66 65 6c   
   2eb0   6c 20 64 6f   
   2eb4   77 6e 20 61   
   2eb8   6e 64 20 62   
   2ebc   72 6f 6b 65   
   2ec0   20 6d 79 20   
   2ec4   6e 65 63 6b   
   2ec8   2e 1b 5b 30   
   2ecc   6d 0d 0a 00   
   2ed0   1b 5b 33 31   Turn5Msg	DB	esc,"[31mI don't understand your command.",esc,"[0m",cr,lf,0
   2ed4   6d 49 20 64   
   2ed8   6f 6e 27 74   
   2edc   20 75 6e 64   
   2ee0   65 72 73 74   
   2ee4   61 6e 64 20   
   2ee8   79 6f 75 72   
   2eec   20 63 6f 6d   
   2ef0   6d 61 6e 64   
   2ef4   2e 1b 5b 30   
   2ef8   6d 0d 0a 00   
   2efc   1b 5b 33 31   Turn6Msg	DB	esc,"[31mI can't do that yet.",esc,"[0m",cr,lf,0
   2f00   6d 49 20 63   
   2f04   61 6e 27 74   
   2f08   20 64 6f 20   
   2f0c   74 68 61 74   
   2f10   20 79 65 74   
   2f14   2e 1b 5b 30   
   2f18   6d 0d 0a 00   
   2f1c   1b 5b 31 6d   CarryDrop1Msg   DB	esc,"[1mWhat?",esc,"[0m",cr,lf,0
   2f20   57 68 61 74   
   2f24   3f 1b 5b 30   
   2f28   6d 0d 0a 00   
   2f2c   1b 5b 33 31   CarryDrop2Msg   DB	esc,"[31mI can't. I'm carrying too much!",esc,"[0m",cr,lf,0
   2f30   6d 49 20 63   
   2f34   61 6e 27 74   
   2f38   2e 20 49 27   
   2f3c   6d 20 63 61   
   2f40   72 72 79 69   
   2f44   6e 67 20 74   
   2f48   6f 6f 20 6d   
   2f4c   75 63 68 21   
   2f50   1b 5b 30 6d   
   2f54   0d 0a 00      
   2f57   1b 5b 31 6d   CarryDrop3Msg   DB	esc,"[1mOK, taken.",esc,"[0m",cr,lf,0
   2f5b   4f 4b 2c 20   
   2f5f   74 61 6b 65   
   2f63   6e 2e 1b 5b   
   2f67   30 6d 0d 0a   
   2f6b   00            
   2f6c   1b 5b 33 31   CarryDrop4Msg   DB	esc,"[31mI don't see it here.",esc,"[0m",cr,lf,0
   2f70   6d 49 20 64   
   2f74   6f 6e 27 74   
   2f78   20 73 65 65   
   2f7c   20 69 74 20   
   2f80   68 65 72 65   
   2f84   2e 1b 5b 30   
   2f88   6d 0d 0a 00   
   2f8c   1b 5b 31 6d   CarryDrop5Msg   DB	esc,"[1mOK, dropped.",esc,"[0m",cr,lf,0
   2f90   4f 4b 2c 20   
   2f94   64 72 6f 70   
   2f98   70 65 64 2e   
   2f9c   1b 5b 30 6d   
   2fa0   0d 0a 00      
   2fa3   1b 5b 33 31   CarryDrop6Msg   DB	esc,"[31mI'm not carrying it!",esc,"[0m",cr,lf,0
   2fa7   6d 49 27 6d   
   2fab   20 6e 6f 74   
   2faf   20 63 61 72   
   2fb3   72 79 69 6e   
   2fb7   67 20 69 74   
   2fbb   21 1b 5b 30   
   2fbf   6d 0d 0a 00   
   2fc3   1b 5b 33 31   CarryDrop7Msg   DB	esc,"[31mIt's beyond my power to do that.",esc,"[0m",cr,lf,0
   2fc7   6d 49 74 27   
   2fcb   73 20 62 65   
   2fcf   79 6f 6e 64   
   2fd3   20 6d 79 20   
   2fd7   70 6f 77 65   
   2fdb   72 20 74 6f   
   2fdf   20 64 6f 20   
   2fe3   74 68 61 74   
   2fe7   2e 1b 5b 30   
   2feb   6d 0d 0a 00   
   2fef   1b 5b 31 3b   Action1Msg      DB	esc,"[1;31mI'm dead...",esc,"[0m",cr,lf,0
   2ff3   33 31 6d 49   
   2ff7   27 6d 20 64   
   2ffb   65 61 64 2e   
   2fff   2e 2e 1b 5b   
   3003   30 6d 0d 0a   
   3007   00            
   3008   1b 5b 31 6d   Action2Msg      DB	esc,"[1mThe game is now over.",cr,lf,esc,"[0;36mAnother game? ",esc,"[0m",0
   300c   54 68 65 20   
   3010   67 61 6d 65   
   3014   20 69 73 20   
   3018   6e 6f 77 20   
   301c   6f 76 65 72   
   3020   2e 0d 0a 1b   
   3024   5b 30 3b 33   
   3028   36 6d 41 6e   
   302c   6f 74 68 65   
   3030   72 20 67 61   
   3034   6d 65 3f 20   
   3038   1b 5b 30 6d   
   303c   00            
   303d   1b 5b 31 6d   Action3_1Msg    DB	esc,"[1mI've stored ",esc,"[33m"
   3041   49 27 76 65   
   3045   20 73 74 6f   
   3049   72 65 64 20   
   304d   1b 5b 33 33   
   3051   6d            
   3052   30 30 20 74   Action3_2Msg    DB	"00 treasures",esc,"[37m.  On a scale",cr,lf,"of 0 to 99, that rates a "
   3056   72 65 61 73   
   305a   75 72 65 73   
   305e   1b 5b 33 37   
   3062   6d 2e 20 20   
   3066   4f 6e 20 61   
   306a   20 73 63 61   
   306e   6c 65 0d 0a   
   3072   6f 66 20 30   
   3076   20 74 6f 20   
   307a   39 39 2c 20   
   307e   74 68 61 74   
   3082   20 72 61 74   
   3086   65 73 20 61   
   308a   20            
   308b   30 30 2e 1b   Action3_3Msg    DB	"00.",esc,"[0m",cr,lf,0
   308f   5b 30 6d 0d   
   3093   0a 00         
   3095   1b 5b 31 6d   Action4Msg      DB	esc,"[1mCongratulations! You scored a Perfect Game!",cr,lf,"You are one smart adventurer!",cr,lf
   3099   43 6f 6e 67   
   309d   72 61 74 75   
   30a1   6c 61 74 69   
   30a5   6f 6e 73 21   
   30a9   20 59 6f 75   
   30ad   20 73 63 6f   
   30b1   72 65 64 20   
   30b5   61 20 50 65   
   30b9   72 66 65 63   
   30bd   74 20 47 61   
   30c1   6d 65 21 0d   
   30c5   0a 59 6f 75   
   30c9   20 61 72 65   
   30cd   20 6f 6e 65   
   30d1   20 73 6d 61   
   30d5   72 74 20 61   
   30d9   64 76 65 6e   
   30dd   74 75 72 65   
   30e1   72 21 0d 0a   
   30e5   1b 5b 33 33   		DB	esc,"[33mKick back and grab a cold one, you've earned it.",esc,"[0m",cr,lf,lf,"The game is now over.",cr,lf,"Another game? ",0
   30e9   6d 4b 69 63   
   30ed   6b 20 62 61   
   30f1   63 6b 20 61   
   30f5   6e 64 20 67   
   30f9   72 61 62 20   
   30fd   61 20 63 6f   
   3101   6c 64 20 6f   
   3105   6e 65 2c 20   
   3109   79 6f 75 27   
   310d   76 65 20 65   
   3111   61 72 6e 65   
   3115   64 20 69 74   
   3119   2e 1b 5b 30   
   311d   6d 0d 0a 0a   
   3121   54 68 65 20   
   3125   67 61 6d 65   
   3129   20 69 73 20   
   312d   6e 6f 77 20   
   3131   6f 76 65 72   
   3135   2e 0d 0a 41   
   3139   6e 6f 74 68   
   313d   65 72 20 67   
   3141   61 6d 65 3f   
   3145   20 00         
   3147   1b 5b 31 3b   Action5Msg      DB	esc,"[1;34m",cr,lf,"I'm carrying:",esc,"[0m",cr,lf,0
   314b   33 34 6d 0d   
   314f   0a 49 27 6d   
   3153   20 63 61 72   
   3157   72 79 69 6e   
   315b   67 3a 1b 5b   
   315f   30 6d 0d 0a   
   3163   00            
   3164   4e 6f 74 68   Action6Msg      DB	"Nothing!", 0
   3168   69 6e 67 21   
   316c   00            
   316d   1b 5b 31 6d   Action7Msg      DB	esc,"[1mGame state has been saved.",esc,"[0m",cr,lf,0
   3171   47 61 6d 65   
   3175   20 73 74 61   
   3179   74 65 20 68   
   317d   61 73 20 62   
   3181   65 65 6e 20   
   3185   73 61 76 65   
   3189   64 2e 1b 5b   
   318d   30 6d 0d 0a   
   3191   00            
                        
                        CL  EQU 149
                        NL  EQU 60
                        RL  EQU 34
                        ML  EQU 80
                        IL  EQU 61
                        MX  EQU 5
                        AR  EQU 11
                        TT  EQU 13
                        LN  EQU 3
                        LI  EQU 125
                        TR  EQU 3
                        MAXLINE  EQU 79
                        
                        ; Array C has dimensions 149 x 16
                        Array_C:
   3192   00 4b 08 01   	DB  000H, 04BH, 008H, 001H, 013H, 006H, 008H, 000H, 00AH, 000H, 000H, 000H, 075H, 03EH, 000H, 000H
   3196   13 06 08 00   
   319a   0a 00 00 00   
   319e   75 3e 00 00   
   31a2   00 0a 14 01   	DB  000H, 00AH, 014H, 001H, 015H, 000H, 014H, 000H, 007H, 006H, 000H, 000H, 00CH, 034H, 03BH, 000H
   31a6   15 00 14 00   
   31aa   07 06 00 00   
   31ae   0c 34 3b 00   
   31b2   00 08 15 01   	DB  000H, 008H, 015H, 001H, 000H, 000H, 000H, 000H, 000H, 000H, 000H, 000H, 00DH, 03DH, 000H, 000H
   31b6   00 00 00 00   
   31ba   00 00 00 00   
   31be   0d 3d 00 00   
   31c2   00 64 0e 08   	DB  000H, 064H, 00EH, 008H, 01AH, 000H, 00DH, 000H, 00EH, 000H, 000H, 000H, 03BH, 034H, 03CH, 000H
   31c6   1a 00 0d 00   
   31ca   0e 00 00 00   
   31ce   3b 34 3c 00   
   31d2   00 64 05 08   	DB  000H, 064H, 005H, 008H, 026H, 000H, 029H, 000H, 015H, 000H, 005H, 000H, 037H, 03EH, 03CH, 040H
   31d6   26 00 29 00   
   31da   15 00 05 00   
   31de   37 3e 3c 40   
   31e2   00 64 18 04   	DB  000H, 064H, 018H, 004H, 000H, 000H, 000H, 000H, 000H, 000H, 000H, 000H, 025H, 03FH, 000H, 000H
   31e6   00 00 00 00   
   31ea   00 00 00 00   
   31ee   25 3f 00 00   
   31f2   00 05 07 01   	DB  000H, 005H, 007H, 001H, 007H, 000H, 001H, 000H, 00CH, 006H, 000H, 000H, 028H, 03EH, 000H, 000H
   31f6   07 00 01 00   
   31fa   0c 06 00 00   
   31fe   28 3e 00 00   
   3202   00 05 14 06   	DB  000H, 005H, 014H, 006H, 015H, 006H, 014H, 000H, 016H, 002H, 007H, 006H, 034H, 02DH, 000H, 000H
   3206   15 06 14 00   
   320a   16 02 07 06   
   320e   34 2d 00 00   
   3212   00 08 18 02   	DB  000H, 008H, 018H, 002H, 007H, 00CH, 000H, 000H, 000H, 000H, 000H, 000H, 00FH, 03DH, 000H, 000H
   3216   07 0c 00 00   
   321a   00 00 00 00   
   321e   0f 3d 00 00   
   3222   00 64 05 04   	DB  000H, 064H, 005H, 004H, 000H, 000H, 000H, 000H, 000H, 000H, 000H, 000H, 039H, 000H, 000H, 000H
   3226   00 00 00 00   
   322a   00 00 00 00   
   322e   39 00 00 00   
   3232   00 32 08 01   	DB  000H, 032H, 008H, 001H, 00CH, 006H, 008H, 000H, 037H, 000H, 000H, 000H, 030H, 03BH, 034H, 000H
   3236   0c 06 08 00   
   323a   37 00 00 00   
   323e   30 3b 34 00   
   3242   00 64 07 08   	DB  000H, 064H, 007H, 008H, 007H, 000H, 02FH, 000H, 019H, 000H, 000H, 000H, 03CH, 03EH, 042H, 000H
   3246   07 00 2f 00   
   324a   19 00 00 00   
   324e   3c 3e 42 00   
   3252   00 1e 2a 01   	DB  000H, 01EH, 02AH, 001H, 015H, 006H, 014H, 006H, 014H, 000H, 000H, 000H, 034H, 02DH, 000H, 000H
   3256   15 06 14 06   
   325a   14 00 00 00   
   325e   34 2d 00 00   
   3262   00 32 1b 02   	DB  000H, 032H, 01BH, 002H, 007H, 001H, 000H, 000H, 000H, 000H, 000H, 000H, 046H, 004H, 03DH, 000H
   3266   07 01 00 00   
   326a   00 00 00 00   
   326e   46 04 3d 00   
   3272   00 64 0c 08   	DB  000H, 064H, 00CH, 008H, 020H, 002H, 024H, 000H, 020H, 000H, 023H, 000H, 035H, 037H, 035H, 000H
   3276   20 02 24 00   
   327a   20 00 23 00   
   327e   35 37 35 00   
   3282   00 64 0c 08   	DB  000H, 064H, 00CH, 008H, 01BH, 002H, 034H, 000H, 01BH, 000H, 000H, 000H, 035H, 037H, 000H, 000H
   3286   1b 02 34 00   
   328a   1b 00 00 00   
   328e   35 37 00 00   
   3292   00 64 01 08   	DB  000H, 064H, 001H, 008H, 002H, 009H, 001H, 000H, 002H, 000H, 000H, 000H, 02AH, 03CH, 03AH, 000H
   3296   02 09 01 00   
   329a   02 00 00 00   
   329e   2a 3c 3a 00   
   32a2   00 05 1a 01   	DB  000H, 005H, 01AH, 001H, 01AH, 000H, 00DH, 000H, 000H, 000H, 000H, 000H, 011H, 03BH, 034H, 000H
   32a6   1a 00 0d 00   
   32aa   00 00 00 00   
   32ae   11 3b 34 00   
   32b2   00 64 0c 08   	DB  000H, 064H, 00CH, 008H, 00CH, 000H, 000H, 000H, 000H, 000H, 000H, 000H, 040H, 03CH, 000H, 000H
   32b6   0c 00 00 00   
   32ba   00 00 00 00   
   32be   40 3c 00 00   
   32c2   00 64 0d 09   	DB  000H, 064H, 00DH, 009H, 00DH, 000H, 000H, 000H, 000H, 000H, 000H, 000H, 06EH, 03AH, 073H, 06BH
   32c6   0d 00 00 00   
   32ca   00 00 00 00   
   32ce   6e 3a 73 6b   
   32d2   00 64 01 08   	DB  000H, 064H, 001H, 008H, 002H, 008H, 001H, 000H, 002H, 000H, 000H, 000H, 01BH, 03CH, 03CH, 000H
   32d6   02 08 01 00   
   32da   02 00 00 00   
   32de   1b 3c 3c 00   
   32e2   1d 10 01 02   	DB  01DH, 010H, 001H, 002H, 000H, 000H, 000H, 000H, 000H, 000H, 000H, 000H, 02EH, 000H, 000H, 000H
   32e6   00 00 00 00   
   32ea   00 00 00 00   
   32ee   2e 00 00 00   
   32f2   1d 18 00 00   	DB  01DH, 018H, 000H, 000H, 000H, 000H, 000H, 000H, 000H, 000H, 000H, 000H, 041H, 000H, 000H, 000H
   32f6   00 00 00 00   
   32fa   00 00 00 00   
   32fe   41 00 00 00   
   3302   1d 36 22 02   	DB  01DH, 036H, 022H, 002H, 000H, 000H, 000H, 000H, 000H, 000H, 000H, 000H, 02EH, 000H, 000H, 000H
   3306   00 00 00 00   
   330a   00 00 00 00   
   330e   2e 00 00 00   
   3312   1d 39 04 02   	DB  01DH, 039H, 004H, 002H, 000H, 000H, 000H, 000H, 000H, 000H, 000H, 000H, 02EH, 000H, 000H, 000H
   3316   00 00 00 00   
   331a   00 00 00 00   
   331e   2e 00 00 00   
   3322   0a 15 07 02   	DB  00AH, 015H, 007H, 002H, 015H, 001H, 015H, 000H, 007H, 000H, 000H, 000H, 03BH, 034H, 076H, 000H
   3326   15 01 15 00   
   332a   07 00 00 00   
   332e   3b 34 76 00   
   3332   0a 2a 17 02   	DB  00AH, 02AH, 017H, 002H, 007H, 006H, 018H, 002H, 000H, 000H, 000H, 000H, 00FH, 03DH, 000H, 000H
   3336   07 06 18 02   
   333a   00 00 00 00   
   333e   0f 3d 00 00   
   3342   0a 15 07 02   	DB  00AH, 015H, 007H, 002H, 014H, 001H, 014H, 000H, 007H, 000H, 000H, 000H, 03BH, 034H, 076H, 000H
   3346   14 01 14 00   
   334a   07 00 00 00   
   334e   3b 34 76 00   
   3352   12 2a 17 01   	DB  012H, 02AH, 017H, 001H, 017H, 000H, 019H, 002H, 027H, 000H, 019H, 000H, 03BH, 00EH, 035H, 037H
   3356   17 00 19 02   
   335a   27 00 19 00   
   335e   3b 0e 35 37   
   3362   0a 17 18 02   	DB  00AH, 017H, 018H, 002H, 007H, 006H, 000H, 000H, 000H, 000H, 000H, 000H, 00FH, 03DH, 000H, 000H
   3366   07 06 00 00   
   336a   00 00 00 00   
   336e   0f 3d 00 00   
   3372   0a 17 18 02   	DB  00AH, 017H, 018H, 002H, 007H, 001H, 00DH, 006H, 000H, 000H, 000H, 000H, 010H, 000H, 000H, 000H
   3376   07 01 0d 06   
   337a   00 00 00 00   
   337e   10 00 00 00   
   3382   0a 17 18 02   	DB  00AH, 017H, 018H, 002H, 007H, 001H, 00DH, 001H, 00DH, 000H, 01AH, 000H, 03BH, 034H, 080H, 000H
   3386   07 01 0d 01   
   338a   0d 00 1a 00   
   338e   3b 34 80 00   
   3392   0a 21 00 00   	DB  00AH, 021H, 000H, 000H, 000H, 000H, 000H, 000H, 000H, 000H, 000H, 000H, 042H, 000H, 000H, 000H
   3396   00 00 00 00   
   339a   00 00 00 00   
   339e   42 00 00 00   
   33a2   1d 00 00 00   	DB  01DH, 000H, 000H, 000H, 000H, 000H, 000H, 000H, 000H, 000H, 000H, 000H, 046H, 040H, 000H, 000H
   33a6   00 00 00 00   
   33aa   00 00 00 00   
   33ae   46 40 00 00   
   33b2   22 00 00 00   	DB  022H, 000H, 000H, 000H, 000H, 000H, 000H, 000H, 000H, 000H, 000H, 000H, 042H, 000H, 000H, 000H
   33b6   00 00 00 00   
   33ba   00 00 00 00   
   33be   42 00 00 00   
   33c2   17 00 1d 01   	DB  017H, 000H, 01DH, 001H, 011H, 004H, 017H, 000H, 000H, 000H, 000H, 000H, 036H, 07AH, 039H, 040H
   33c6   11 04 17 00   
   33ca   00 00 00 00   
   33ce   36 7a 39 40   
   33d2   0e 19 1f 03   	DB  00EH, 019H, 01FH, 003H, 01CH, 006H, 000H, 000H, 000H, 000H, 000H, 000H, 013H, 000H, 000H, 000H
   33d6   1c 06 00 00   
   33da   00 00 00 00   
   33de   13 00 00 00   
   33e2   0e 19 1f 01   	DB  00EH, 019H, 01FH, 001H, 01CH, 001H, 01FH, 000H, 000H, 000H, 000H, 000H, 015H, 03DH, 03BH, 000H
   33e6   1c 01 1f 00   
   33ea   00 00 00 00   
   33ee   15 3d 3b 00   
   33f2   2d 2c 00 00   	DB  02DH, 02CH, 000H, 000H, 000H, 000H, 000H, 000H, 000H, 000H, 000H, 000H, 072H, 000H, 000H, 000H
   33f6   00 00 00 00   
   33fa   00 00 00 00   
   33fe   72 00 00 00   
   3402   0e 19 1f 02   	DB  00EH, 019H, 01FH, 002H, 01CH, 001H, 01FH, 000H, 00CH, 000H, 000H, 000H, 046H, 037H, 03AH, 014H
   3406   1c 01 1f 00   
   340a   0c 00 00 00   
   340e   46 37 3a 14   
   3412   01 22 14 04   	DB  001H, 022H, 014H, 004H, 023H, 002H, 013H, 000H, 000H, 000H, 000H, 000H, 036H, 046H, 040H, 000H
   3416   23 02 13 00   
   341a   00 00 00 00   
   341e   36 46 40 00   
   3422   0a 19 01 04   	DB  00AH, 019H, 001H, 004H, 028H, 006H, 000H, 000H, 000H, 000H, 000H, 000H, 010H, 000H, 000H, 000H
   3426   28 06 00 00   
   342a   00 00 00 00   
   342e   10 00 00 00   
   3432   0a 19 01 04   	DB  00AH, 019H, 001H, 004H, 028H, 001H, 028H, 000H, 01FH, 000H, 000H, 000H, 03BH, 034H, 07FH, 000H
   3436   28 01 28 00   
   343a   1f 00 00 00   
   343e   3b 34 7f 00   
   3442   12 19 1f 01   	DB  012H, 019H, 01FH, 001H, 01FH, 000H, 028H, 000H, 000H, 000H, 000H, 000H, 03BH, 034H, 017H, 000H
   3446   1f 00 28 00   
   344a   00 00 00 00   
   344e   3b 34 17 00   
   3452   0e 19 12 02   	DB  00EH, 019H, 012H, 002H, 01CH, 001H, 000H, 000H, 000H, 000H, 000H, 000H, 016H, 000H, 000H, 000H
   3456   1c 01 00 00   
   345a   00 00 00 00   
   345e   16 00 00 00   
   3462   2d 35 00 00   	DB  02DH, 035H, 000H, 000H, 000H, 000H, 000H, 000H, 000H, 000H, 000H, 000H, 072H, 000H, 000H, 000H
   3466   00 00 00 00   
   346a   00 00 00 00   
   346e   72 00 00 00   
   3472   01 23 13 04   	DB  001H, 023H, 013H, 004H, 000H, 000H, 000H, 000H, 000H, 000H, 000H, 000H, 019H, 000H, 000H, 000H
   3476   00 00 00 00   
   347a   00 00 00 00   
   347e   19 00 00 00   
   3482   12 0a 26 01   	DB  012H, 00AH, 026H, 001H, 026H, 000H, 01DH, 002H, 001H, 000H, 000H, 000H, 035H, 024H, 03AH, 000H
   3486   26 00 1d 02   
   348a   01 00 00 00   
   348e   35 24 3a 00   
   3492   2a 2b 2e 01   	DB  02AH, 02BH, 02EH, 001H, 02EH, 000H, 000H, 000H, 000H, 000H, 000H, 000H, 077H, 03BH, 000H, 000H
   3496   2e 00 00 00   
   349a   00 00 00 00   
   349e   77 3b 00 00   
   34a2   0a 0d 06 02   	DB  00AH, 00DH, 006H, 002H, 00DH, 001H, 00DH, 000H, 00CH, 000H, 000H, 000H, 03BH, 034H, 000H, 000H
   34a6   0d 01 0d 00   
   34aa   0c 00 00 00   
   34ae   3b 34 00 00   
   34b2   06 00 13 04   	DB  006H, 000H, 013H, 004H, 015H, 000H, 024H, 006H, 000H, 000H, 000H, 000H, 036H, 040H, 000H, 000H
   34b6   15 00 24 06   
   34ba   00 00 00 00   
   34be   36 40 00 00   
   34c2   06 00 15 04   	DB  006H, 000H, 015H, 004H, 013H, 000H, 000H, 000H, 000H, 000H, 000H, 000H, 036H, 040H, 000H, 000H
   34c6   13 00 00 00   
   34ca   00 00 00 00   
   34ce   36 40 00 00   
   34d2   01 23 15 04   	DB  001H, 023H, 015H, 004H, 019H, 002H, 000H, 000H, 000H, 000H, 000H, 000H, 01AH, 000H, 000H, 000H
   34d6   19 02 00 00   
   34da   00 00 00 00   
   34de   1a 00 00 00   
   34e2   01 23 15 04   	DB  001H, 023H, 015H, 004H, 019H, 005H, 016H, 000H, 000H, 000H, 000H, 000H, 036H, 046H, 040H, 000H
   34e6   19 05 16 00   
   34ea   00 00 00 00   
   34ee   36 46 40 00   
   34f2   23 0f 00 00   	DB  023H, 00FH, 000H, 000H, 000H, 000H, 000H, 000H, 000H, 000H, 000H, 000H, 047H, 000H, 000H, 000H
   34f6   00 00 00 00   
   34fa   00 00 00 00   
   34fe   47 00 00 00   
   3502   01 36 22 02   	DB  001H, 036H, 022H, 002H, 000H, 000H, 000H, 000H, 000H, 000H, 000H, 000H, 07DH, 000H, 000H, 000H
   3506   00 00 00 00   
   350a   00 00 00 00   
   350e   7d 00 00 00   
   3512   12 17 1a 01   	DB  012H, 017H, 01AH, 001H, 019H, 002H, 018H, 000H, 00EH, 000H, 000H, 000H, 035H, 01CH, 03DH, 03AH
   3516   19 02 18 00   
   351a   0e 00 00 00   
   351e   35 1c 3d 3a   
   3522   0a 0d 06 02   	DB  00AH, 00DH, 006H, 002H, 00DH, 006H, 000H, 000H, 000H, 000H, 000H, 000H, 010H, 000H, 000H, 000H
   3526   0d 06 00 00   
   352a   00 00 00 00   
   352e   10 00 00 00   
   3532   26 33 03 02   	DB  026H, 033H, 003H, 002H, 000H, 000H, 000H, 000H, 000H, 000H, 000H, 000H, 002H, 000H, 000H, 000H
   3536   00 00 00 00   
   353a   00 00 00 00   
   353e   02 00 00 00   
   3542   01 39 02 00   	DB  001H, 039H, 002H, 000H, 005H, 002H, 000H, 000H, 000H, 000H, 000H, 000H, 036H, 046H, 040H, 000H
   3546   05 02 00 00   
   354a   00 00 00 00   
   354e   36 46 40 00   
   3552   12 0d 0c 01   	DB  012H, 00DH, 00CH, 001H, 00CH, 000H, 00DH, 000H, 000H, 000H, 000H, 000H, 03BH, 034H, 01DH, 000H
   3556   0c 00 0d 00   
   355a   00 00 00 00   
   355e   3b 34 1d 00   
   3562   0a 1c 16 02   	DB  00AH, 01CH, 016H, 002H, 016H, 000H, 00AH, 000H, 000H, 000H, 000H, 000H, 037H, 045H, 037H, 02CH
   3566   16 00 0a 00   
   356a   00 00 00 00   
   356e   37 45 37 2c   
   3572   08 39 05 00   	DB  008H, 039H, 005H, 000H, 005H, 002H, 00EH, 00CH, 004H, 000H, 00BH, 001H, 037H, 035H, 008H, 007H
   3576   05 02 0e 0c   
   357a   04 00 0b 01   
   357e   37 35 08 07   
   3582   27 14 05 04   	DB  027H, 014H, 005H, 004H, 010H, 002H, 00EH, 006H, 000H, 000H, 000H, 000H, 006H, 000H, 000H, 000H
   3586   10 02 0e 06   
   358a   00 00 00 00   
   358e   06 00 00 00   
   3592   25 14 05 04   	DB  025H, 014H, 005H, 004H, 010H, 002H, 00EH, 006H, 000H, 000H, 000H, 000H, 006H, 000H, 000H, 000H
   3596   10 02 0e 06   
   359a   00 00 00 00   
   359e   06 00 00 00   
   35a2   18 0b 0b 01   	DB  018H, 00BH, 00BH, 001H, 003H, 000H, 00BH, 000H, 000H, 000H, 000H, 000H, 01EH, 03AH, 035H, 000H
   35a6   03 00 0b 00   
   35aa   00 00 00 00   
   35ae   1e 3a 35 00   
   35b2   27 14 10 02   	DB  027H, 014H, 010H, 002H, 00EH, 001H, 010H, 000H, 011H, 000H, 000H, 000H, 037H, 035H, 040H, 000H
   35b6   0e 01 10 00   
   35ba   11 00 00 00   
   35be   37 35 40 00   
   35c2   12 25 24 01   	DB  012H, 025H, 024H, 001H, 022H, 005H, 024H, 000H, 000H, 000H, 000H, 000H, 035H, 082H, 000H, 000H
   35c6   22 05 24 00   
   35ca   00 00 00 00   
   35ce   35 82 00 00   
   35d2   06 00 13 04   	DB  006H, 000H, 013H, 004H, 024H, 001H, 000H, 000H, 000H, 000H, 000H, 000H, 021H, 03DH, 000H, 000H
   35d6   24 01 00 00   
   35da   00 00 00 00   
   35de   21 3d 00 00   
   35e2   12 25 24 01   	DB  012H, 025H, 024H, 001H, 022H, 002H, 038H, 000H, 02DH, 000H, 024H, 000H, 035H, 035H, 037H, 081H
   35e6   22 02 38 00   
   35ea   2d 00 24 00   
   35ee   35 35 37 81   
   35f2   0a 25 24 02   	DB  00AH, 025H, 024H, 002H, 024H, 000H, 000H, 000H, 000H, 000H, 000H, 000H, 020H, 034H, 000H, 000H
   35f6   24 00 00 00   
   35fa   00 00 00 00   
   35fe   20 34 00 00   
   3602   16 00 00 00   	DB  016H, 000H, 000H, 000H, 000H, 000H, 000H, 000H, 000H, 000H, 000H, 000H, 022H, 000H, 000H, 000H
   3606   00 00 00 00   
   360a   00 00 00 00   
   360e   22 00 00 00   
   3612   1a 00 00 00   	DB  01AH, 000H, 000H, 000H, 000H, 000H, 000H, 000H, 000H, 000H, 000H, 000H, 041H, 03FH, 000H, 000H
   3616   00 00 00 00   
   361a   00 00 00 00   
   361e   41 3f 00 00   
   3622   0a 0a 26 02   	DB  00AH, 00AH, 026H, 002H, 019H, 002H, 000H, 000H, 000H, 000H, 000H, 000H, 01AH, 000H, 000H, 000H
   3626   19 02 00 00   
   362a   00 00 00 00   
   362e   1a 00 00 00   
   3632   12 0a 26 01   	DB  012H, 00AH, 026H, 001H, 01DH, 005H, 029H, 000H, 026H, 000H, 000H, 000H, 023H, 035H, 03BH, 000H
   3636   1d 05 29 00   
   363a   26 00 00 00   
   363e   23 35 3b 00   
   3642   07 00 03 08   	DB  007H, 000H, 003H, 008H, 026H, 005H, 003H, 000H, 000H, 000H, 000H, 000H, 06FH, 03CH, 000H, 000H
   3646   26 05 03 00   
   364a   00 00 00 00   
   364e   6f 3c 00 00   
   3652   20 00 03 08   	DB  020H, 000H, 003H, 008H, 003H, 000H, 01BH, 002H, 000H, 000H, 000H, 000H, 027H, 03CH, 000H, 000H
   3656   03 00 1b 02   
   365a   00 00 00 00   
   365e   27 3c 00 00   
   3662   21 00 00 00   	DB  021H, 000H, 000H, 000H, 000H, 000H, 000H, 000H, 000H, 000H, 000H, 000H, 041H, 000H, 000H, 000H
   3666   00 00 00 00   
   366a   00 00 00 00   
   366e   41 00 00 00   
   3672   2f 00 14 01   	DB  02FH, 000H, 014H, 001H, 000H, 000H, 000H, 000H, 000H, 000H, 000H, 000H, 06EH, 071H, 069H, 000H
   3676   00 00 00 00   
   367a   00 00 00 00   
   367e   6e 71 69 00   
   3682   2f 00 15 01   	DB  02FH, 000H, 015H, 001H, 000H, 000H, 000H, 000H, 000H, 000H, 000H, 000H, 06EH, 071H, 069H, 000H
   3686   00 00 00 00   
   368a   00 00 00 00   
   368e   6e 71 69 00   
   3692   01 22 12 04   	DB  001H, 022H, 012H, 004H, 000H, 000H, 000H, 000H, 000H, 000H, 000H, 000H, 066H, 000H, 000H, 000H
   3696   00 00 00 00   
   369a   00 00 00 00   
   369e   66 00 00 00   
   36a2   0a 36 22 02   	DB  00AH, 036H, 022H, 002H, 000H, 000H, 000H, 000H, 000H, 000H, 000H, 000H, 033H, 000H, 000H, 000H
   36a6   00 00 00 00   
   36aa   00 00 00 00   
   36ae   33 00 00 00   
   36b2   33 00 19 02   	DB  033H, 000H, 019H, 002H, 02BH, 000H, 012H, 000H, 019H, 000H, 000H, 000H, 029H, 03EH, 037H, 000H
   36b6   2b 00 12 00   
   36ba   19 00 00 00   
   36be   29 3e 37 00   
   36c2   12 17 1a 01   	DB  012H, 017H, 01AH, 001H, 01BH, 002H, 00EH, 000H, 02CH, 000H, 01BH, 000H, 03AH, 035H, 037H, 02BH
   36c6   1b 02 0e 00   
   36ca   2c 00 1b 00   
   36ce   3a 35 37 2b   
   36d2   31 00 03 08   	DB  031H, 000H, 003H, 008H, 003H, 000H, 000H, 000H, 000H, 000H, 000H, 000H, 03CH, 001H, 06EH, 06BH
   36d6   03 00 00 00   
   36da   00 00 00 00   
   36de   3c 01 6e 6b   
   36e2   27 14 11 02   	DB  027H, 014H, 011H, 002H, 000H, 000H, 000H, 000H, 000H, 000H, 000H, 000H, 040H, 000H, 000H, 000H
   36e6   00 00 00 00   
   36ea   00 00 00 00   
   36ee   40 00 00 00   
   36f2   01 10 23 02   	DB  001H, 010H, 023H, 002H, 013H, 000H, 000H, 000H, 000H, 000H, 000H, 000H, 046H, 036H, 040H, 000H
   36f6   13 00 00 00   
   36fa   00 00 00 00   
   36fe   46 36 40 00   
   3702   07 00 03 08   	DB  007H, 000H, 003H, 008H, 026H, 000H, 005H, 000H, 003H, 000H, 019H, 002H, 037H, 03AH, 01FH, 03CH
   3706   26 00 05 00   
   370a   03 00 19 02   
   370e   37 3a 1f 3c   
   3712   2d 0b 00 00   	DB  02DH, 00BH, 000H, 000H, 000H, 000H, 000H, 000H, 000H, 000H, 000H, 000H, 06EH, 072H, 000H, 000H
   3716   00 00 00 00   
   371a   00 00 00 00   
   371e   6e 72 00 00   
   3722   24 00 00 00   	DB  024H, 000H, 000H, 000H, 000H, 000H, 000H, 000H, 000H, 000H, 000H, 000H, 001H, 02FH, 000H, 000H
   3726   00 00 00 00   
   372a   00 00 00 00   
   372e   01 2f 00 00   
   3732   01 39 04 02   	DB  001H, 039H, 004H, 002H, 003H, 000H, 000H, 000H, 000H, 000H, 000H, 000H, 036H, 046H, 040H, 000H
   3736   03 00 00 00   
   373a   00 00 00 00   
   373e   36 46 40 00   
   3742   08 39 05 02   	DB  008H, 039H, 005H, 002H, 00BH, 001H, 005H, 000H, 004H, 000H, 00EH, 001H, 037H, 035H, 008H, 000H
   3746   0b 01 05 00   
   374a   04 00 0e 01   
   374e   37 35 08 00   
   3752   08 39 05 02   	DB  008H, 039H, 005H, 002H, 00BH, 001H, 005H, 000H, 004H, 000H, 00EH, 002H, 037H, 035H, 008H, 000H
   3756   0b 01 05 00   
   375a   04 00 0e 02   
   375e   37 35 08 00   
   3762   28 26 19 02   	DB  028H, 026H, 019H, 002H, 000H, 000H, 000H, 000H, 000H, 000H, 000H, 000H, 01AH, 02FH, 000H, 000H
   3766   00 00 00 00   
   376a   00 00 00 00   
   376e   1a 2f 00 00   
   3772   28 27 1b 02   	DB  028H, 027H, 01BH, 002H, 000H, 000H, 000H, 000H, 000H, 000H, 000H, 000H, 07CH, 02FH, 000H, 000H
   3776   00 00 00 00   
   377a   00 00 00 00   
   377e   7c 2f 00 00   
   3782   2a 0d 0c 01   	DB  02AH, 00DH, 00CH, 001H, 00CH, 000H, 00DH, 000H, 000H, 000H, 000H, 000H, 003H, 03BH, 034H, 000H
   3786   0c 00 0d 00   
   378a   00 00 00 00   
   378e   03 3b 34 00   
   3792   2a 0d 06 02   	DB  02AH, 00DH, 006H, 002H, 000H, 000H, 000H, 000H, 000H, 000H, 000H, 000H, 003H, 000H, 000H, 000H
   3796   00 00 00 00   
   379a   00 00 00 00   
   379e   03 00 00 00   
   37a2   2a 2a 17 01   	DB  02AH, 02AH, 017H, 001H, 017H, 000H, 000H, 000H, 000H, 000H, 000H, 000H, 077H, 03BH, 000H, 000H
   37a6   17 00 00 00   
   37aa   00 00 00 00   
   37ae   77 3b 00 00   
   37b2   32 00 10 02   	DB  032H, 000H, 010H, 002H, 003H, 008H, 010H, 000H, 011H, 000H, 003H, 000H, 037H, 035H, 005H, 03CH
   37b6   03 08 10 00   
   37ba   11 00 03 00   
   37be   37 35 05 3c   
   37c2   1b 00 1a 04   	DB  01BH, 000H, 01AH, 004H, 000H, 00AH, 000H, 000H, 000H, 000H, 000H, 000H, 07BH, 000H, 000H, 000H
   37c6   00 0a 00 00   
   37ca   00 00 00 00   
   37ce   7b 00 00 00   
   37d2   1b 00 1a 04   	DB  01BH, 000H, 01AH, 004H, 000H, 00BH, 00AH, 000H, 000H, 000H, 000H, 000H, 036H, 046H, 040H, 000H
   37d6   00 0b 0a 00   
   37da   00 00 00 00   
   37de   36 46 40 00   
   37e2   08 00 0b 06   	DB  008H, 000H, 00BH, 006H, 000H, 000H, 000H, 000H, 000H, 000H, 000H, 000H, 026H, 000H, 000H, 000H
   37e6   00 00 00 00   
   37ea   00 00 00 00   
   37ee   26 00 00 00   
   37f2   2c 00 2f 03   	DB  02CH, 000H, 02FH, 003H, 00BH, 001H, 00BH, 000H, 019H, 000H, 007H, 000H, 012H, 03EH, 03AH, 000H
   37f6   0b 01 0b 00   
   37fa   19 00 07 00   
   37fe   12 3e 3a 00   
   3802   2c 00 0b 01   	DB  02CH, 000H, 00BH, 001H, 01AH, 007H, 00BH, 000H, 019H, 000H, 000H, 000H, 012H, 03EH, 042H, 000H
   3806   1a 07 0b 00   
   380a   19 00 00 00   
   380e   12 3e 42 00   
   3812   1c 11 09 03   	DB  01CH, 011H, 009H, 003H, 000H, 000H, 000H, 000H, 000H, 000H, 000H, 000H, 033H, 000H, 000H, 000H
   3816   00 00 00 00   
   381a   00 00 00 00   
   381e   33 00 00 00   
   3822   1c 11 0a 03   	DB  01CH, 011H, 00AH, 003H, 008H, 009H, 030H, 000H, 008H, 000H, 000H, 000H, 031H, 035H, 03AH, 000H
   3826   08 09 30 00   
   382a   08 00 00 00   
   382e   31 35 3a 00   
   3832   1c 11 0a 03   	DB  01CH, 011H, 00AH, 003H, 00BH, 008H, 000H, 000H, 000H, 000H, 000H, 000H, 001H, 000H, 000H, 000H
   3836   0b 08 00 00   
   383a   00 00 00 00   
   383e   01 00 00 00   
   3842   1c 11 0a 03   	DB  01CH, 011H, 00AH, 003H, 00AH, 008H, 00BH, 000H, 021H, 000H, 030H, 000H, 032H, 03AH, 036H, 03BH
   3846   0a 08 0b 00   
   384a   21 00 30 00   
   384e   32 3a 36 3b   
   3852   1c 11 0a 03   	DB  01CH, 011H, 00AH, 003H, 009H, 008H, 00AH, 000H, 021H, 000H, 031H, 000H, 032H, 03AH, 036H, 03BH
   3856   09 08 0a 00   
   385a   21 00 31 00   
   385e   32 3a 36 3b   
   3862   1c 11 0a 03   	DB  01CH, 011H, 00AH, 003H, 008H, 008H, 031H, 000H, 009H, 000H, 000H, 000H, 031H, 035H, 03AH, 000H
   3866   08 08 31 00   
   386a   09 00 00 00   
   386e   31 35 3a 00   
   3872   33 00 14 01   	DB  033H, 000H, 014H, 001H, 014H, 000H, 015H, 000H, 000H, 000H, 000H, 000H, 078H, 00CH, 03BH, 034H
   3876   14 00 15 00   
   387a   00 00 00 00   
   387e   78 0c 3b 34   
   3882   33 00 15 01   	DB  033H, 000H, 015H, 001H, 000H, 000H, 000H, 000H, 000H, 000H, 000H, 000H, 078H, 00DH, 03DH, 000H
   3886   00 00 00 00   
   388a   00 00 00 00   
   388e   78 0d 3d 00   
   3892   1b 00 1a 07   	DB  01BH, 000H, 01AH, 007H, 000H, 000H, 000H, 000H, 000H, 000H, 000H, 000H, 07EH, 000H, 000H, 000H
   3896   00 00 00 00   
   389a   00 00 00 00   
   389e   7e 00 00 00   
   38a2   17 00 1d 06   	DB  017H, 000H, 01DH, 006H, 000H, 000H, 000H, 000H, 000H, 000H, 000H, 000H, 001H, 000H, 000H, 000H
   38a6   00 00 00 00   
   38aa   00 00 00 00   
   38ae   01 00 00 00   
   38b2   2c 00 00 00   	DB  02CH, 000H, 000H, 000H, 000H, 000H, 000H, 000H, 000H, 000H, 000H, 000H, 001H, 000H, 000H, 000H
   38b6   00 00 00 00   
   38ba   00 00 00 00   
   38be   01 00 00 00   
   38c2   0e 11 09 03   	DB  00EH, 011H, 009H, 003H, 000H, 000H, 000H, 000H, 000H, 000H, 000H, 000H, 079H, 000H, 000H, 000H
   38c6   00 00 00 00   
   38ca   00 00 00 00   
   38ce   79 00 00 00   
   38d2   2d 39 00 00   	DB  02DH, 039H, 000H, 000H, 000H, 000H, 000H, 000H, 000H, 000H, 000H, 000H, 067H, 000H, 000H, 000H
   38d6   00 00 00 00   
   38da   00 00 00 00   
   38de   67 00 00 00   
   38e2   12 17 1a 01   	DB  012H, 017H, 01AH, 001H, 018H, 000H, 01AH, 000H, 00DH, 000H, 000H, 000H, 035H, 03BH, 034H, 000H
   38e6   18 00 1a 00   
   38ea   0d 00 00 00   
   38ee   35 3b 34 00   
   38f2   2d 1e 00 00   	DB  02DH, 01EH, 000H, 000H, 000H, 000H, 000H, 000H, 000H, 000H, 000H, 000H, 067H, 000H, 000H, 000H
   38f6   00 00 00 00   
   38fa   00 00 00 00   
   38fe   67 00 00 00   
   3902   2d 15 00 00   	DB  02DH, 015H, 000H, 000H, 000H, 000H, 000H, 000H, 000H, 000H, 000H, 000H, 067H, 000H, 000H, 000H
   3906   00 00 00 00   
   390a   00 00 00 00   
   390e   67 00 00 00   
   3912   30 00 00 00   	DB  030H, 000H, 000H, 000H, 000H, 000H, 000H, 000H, 000H, 000H, 000H, 000H, 068H, 000H, 000H, 000H
   3916   00 00 00 00   
   391a   00 00 00 00   
   391e   68 00 00 00   
   3922   01 39 0b 04   	DB  001H, 039H, 00BH, 004H, 01CH, 000H, 000H, 000H, 000H, 000H, 000H, 000H, 036H, 046H, 040H, 000H
   3926   1c 00 00 00   
   392a   00 00 00 00   
   392e   36 46 40 00   
   3932   2f 00 1a 04   	DB  02FH, 000H, 01AH, 004H, 000H, 000H, 000H, 000H, 000H, 000H, 000H, 000H, 06EH, 069H, 06DH, 000H
   3936   00 00 00 00   
   393a   00 00 00 00   
   393e   6e 69 6d 00   
   3942   2f 00 0b 04   	DB  02FH, 000H, 00BH, 004H, 000H, 000H, 000H, 000H, 000H, 000H, 000H, 000H, 06EH, 069H, 000H, 000H
   3946   00 00 00 00   
   394a   00 00 00 00   
   394e   6e 69 00 00   
   3952   2f 00 13 04   	DB  02FH, 000H, 013H, 004H, 000H, 000H, 000H, 000H, 000H, 000H, 000H, 000H, 06EH, 069H, 000H, 000H
   3956   00 00 00 00   
   395a   00 00 00 00   
   395e   6e 69 00 00   
   3962   2f 00 17 04   	DB  02FH, 000H, 017H, 004H, 000H, 000H, 000H, 000H, 000H, 000H, 000H, 000H, 06EH, 06AH, 000H, 000H
   3966   00 00 00 00   
   396a   00 00 00 00   
   396e   6e 6a 00 00   
   3972   2f 00 0d 04   	DB  02FH, 000H, 00DH, 004H, 000H, 000H, 000H, 000H, 000H, 000H, 000H, 000H, 06EH, 06DH, 000H, 000H
   3976   00 00 00 00   
   397a   00 00 00 00   
   397e   6e 6d 00 00   
   3982   2f 00 11 04   	DB  02FH, 000H, 011H, 004H, 000H, 000H, 000H, 000H, 000H, 000H, 000H, 000H, 06EH, 06DH, 000H, 000H
   3986   00 00 00 00   
   398a   00 00 00 00   
   398e   6e 6d 00 00   
   3992   2f 00 0f 04   	DB  02FH, 000H, 00FH, 004H, 000H, 000H, 000H, 000H, 000H, 000H, 000H, 000H, 06EH, 06DH, 000H, 000H
   3996   00 00 00 00   
   399a   00 00 00 00   
   399e   6e 6d 00 00   
   39a2   2f 00 15 04   	DB  02FH, 000H, 015H, 004H, 000H, 000H, 000H, 000H, 000H, 000H, 000H, 000H, 06EH, 069H, 000H, 000H
   39a6   00 00 00 00   
   39aa   00 00 00 00   
   39ae   6e 69 00 00   
   39b2   2f 00 08 04   	DB  02FH, 000H, 008H, 004H, 000H, 000H, 000H, 000H, 000H, 000H, 000H, 000H, 06EH, 06CH, 000H, 000H
   39b6   00 00 00 00   
   39ba   00 00 00 00   
   39be   6e 6c 00 00   
   39c2   25 14 0e 01   	DB  025H, 014H, 00EH, 001H, 010H, 002H, 011H, 000H, 010H, 000H, 000H, 000H, 035H, 037H, 040H, 000H
   39c6   10 02 11 00   
   39ca   10 00 00 00   
   39ce   35 37 40 00   
   39d2   01 38 11 02   	DB  001H, 038H, 011H, 002H, 006H, 000H, 000H, 000H, 000H, 000H, 000H, 000H, 036H, 038H, 046H, 040H
   39d6   06 00 00 00   
   39da   00 00 00 00   
   39de   36 38 46 40   
   39e2   0e 11 0a 01   	DB  00EH, 011H, 00AH, 001H, 00AH, 000H, 009H, 000H, 000H, 000H, 000H, 000H, 03BH, 034H, 00AH, 000H
   39e6   0a 00 09 00   
   39ea   00 00 00 00   
   39ee   3b 34 0a 00   
   39f2   0e 13 09 01   	DB  00EH, 013H, 009H, 001H, 009H, 000H, 00AH, 000H, 000H, 000H, 000H, 000H, 03BH, 034H, 009H, 000H
   39f6   09 00 0a 00   
   39fa   00 00 00 00   
   39fe   3b 34 09 00   
   3a02   0a 33 03 02   	DB  00AH, 033H, 003H, 002H, 000H, 000H, 000H, 000H, 000H, 000H, 000H, 000H, 00BH, 03DH, 000H, 000H
   3a06   00 00 00 00   
   3a0a   00 00 00 00   
   3a0e   0b 3d 00 00   
   3a12   01 10 34 02   	DB  001H, 010H, 034H, 002H, 018H, 000H, 000H, 000H, 000H, 000H, 000H, 000H, 036H, 046H, 040H, 000H
   3a16   18 00 00 00   
   3a1a   00 00 00 00   
   3a1e   36 46 40 00   
   3a22   0a 31 00 00   	DB  00AH, 031H, 000H, 000H, 000H, 000H, 000H, 000H, 000H, 000H, 000H, 000H, 06EH, 06FH, 000H, 000H
   3a26   00 00 00 00   
   3a2a   00 00 00 00   
   3a2e   6e 6f 00 00   
   3a32   0e 00 1c 01   	DB  00EH, 000H, 01CH, 001H, 012H, 005H, 000H, 000H, 000H, 000H, 000H, 000H, 018H, 000H, 000H, 000H
   3a36   12 05 00 00   
   3a3a   00 00 00 00   
   3a3e   18 00 00 00   
   3a42   33 00 00 00   	DB  033H, 000H, 000H, 000H, 000H, 000H, 000H, 000H, 000H, 000H, 000H, 000H, 001H, 000H, 000H, 000H
   3a46   00 00 00 00   
   3a4a   00 00 00 00   
   3a4e   01 00 00 00   
   3a52   17 00 1d 01   	DB  017H, 000H, 01DH, 001H, 011H, 007H, 011H, 000H, 000H, 000H, 000H, 000H, 036H, 07AH, 038H, 040H
   3a56   11 07 11 00   
   3a5a   00 00 00 00   
   3a5e   36 7a 38 40   
   3a62   2f 00 01 04   	DB  02FH, 000H, 001H, 004H, 000H, 000H, 000H, 000H, 000H, 000H, 000H, 000H, 06EH, 069H, 000H, 000H
   3a66   00 00 00 00   
   3a6a   00 00 00 00   
   3a6e   6e 69 00 00   
   3a72   18 0b 0b 06   	DB  018H, 00BH, 00BH, 006H, 000H, 000H, 000H, 000H, 000H, 000H, 000H, 000H, 026H, 000H, 000H, 000H
   3a76   00 00 00 00   
   3a7a   00 00 00 00   
   3a7e   26 00 00 00   
   3a82   2f 00 14 04   	DB  02FH, 000H, 014H, 004H, 000H, 000H, 000H, 000H, 000H, 000H, 000H, 000H, 06EH, 074H, 067H, 000H
   3a86   00 00 00 00   
   3a8a   00 00 00 00   
   3a8e   6e 74 67 00   
   3a92   2d 18 00 00   	DB  02DH, 018H, 000H, 000H, 000H, 000H, 000H, 000H, 000H, 000H, 000H, 000H, 041H, 000H, 000H, 000H
   3a96   00 00 00 00   
   3a9a   00 00 00 00   
   3a9e   41 00 00 00   
   3aa2   01 10 04 04   	DB  001H, 010H, 004H, 004H, 005H, 000H, 000H, 000H, 000H, 000H, 000H, 000H, 036H, 046H, 040H, 000H
   3aa6   05 00 00 00   
   3aaa   00 00 00 00   
   3aae   36 46 40 00   
   3ab2   2f 00 00 00   	DB  02FH, 000H, 000H, 000H, 000H, 000H, 000H, 000H, 000H, 000H, 000H, 000H, 001H, 000H, 000H, 000H
   3ab6   00 00 00 00   
   3aba   00 00 00 00   
   3abe   01 00 00 00   
   3ac2   08 00 00 00   	DB  008H, 000H, 000H, 000H, 000H, 000H, 000H, 000H, 000H, 000H, 000H, 000H, 001H, 02FH, 000H, 000H
   3ac6   00 00 00 00   
   3aca   00 00 00 00   
   3ace   01 2f 00 00   
   3ad2   18 00 00 00   	DB  018H, 000H, 000H, 000H, 000H, 000H, 000H, 000H, 000H, 000H, 000H, 000H, 070H, 000H, 000H, 000H
   3ad6   00 00 00 00   
   3ada   00 00 00 00   
   3ade   70 00 00 00   
   3ae2   ff            	DB  0FFH
                        
                        ; Array NVS has dimensions 2 x 60 x 4
   3ae3   41 55 54 00   Array_NVS   DB    "AUT",0, "GO",0,0, "*ENT", "*RUN", "*WAL", "*CLI", "JUM",0, "BEA",0, "CHO",0, "*CUT"
   3ae7   47 4f 00 00   
   3aeb   2a 45 4e 54   
   3aef   2a 52 55 4e   
   3af3   2a 57 41 4c   
   3af7   2a 43 4c 49   
   3afb   4a 55 4d 00   
   3aff   42 45 41 00   
   3b03   43 48 4f 00   
   3b07   2a 43 55 54   
   3b0b   54 41 4b 00   	DB    "TAK",0, "*GET", "*PIC", "*CAT", "LIG",0, "*TUR", "*LAM", "*BUR", "DRO",0, "*REL"
   3b0f   2a 47 45 54   
   3b13   2a 50 49 43   
   3b17   2a 43 41 54   
   3b1b   4c 49 47 00   
   3b1f   2a 54 55 52   
   3b23   2a 4c 41 4d   
   3b27   2a 42 55 52   
   3b2b   44 52 4f 00   
   3b2f   2a 52 45 4c   
   3b33   2a 53 50 49   	DB    "*SPI", "*LEA", "STO",0, "AWA",0, "THR",0, "TOS",0, "QUI",0, "SWI",0, "RUB",0, "LOO",0
   3b37   2a 4c 45 41   
   3b3b   53 54 4f 00   
   3b3f   41 57 41 00   
   3b43   54 48 52 00   
   3b47   54 4f 53 00   
   3b4b   51 55 49 00   
   3b4f   53 57 49 00   
   3b53   52 55 42 00   
   3b57   4c 4f 4f 00   
   3b5b   2a 53 48 4f   	DB    "*SHO", "*SEE", "DRA",0, "SCO",0, "INV",0, "SAV",0, "WAK",0, "UNL",0, "REA",0, "OPE",0
   3b5f   2a 53 45 45   
   3b63   44 52 41 00   
   3b67   53 43 4f 00   
   3b6b   49 4e 56 00   
   3b6f   53 41 56 00   
   3b73   57 41 4b 00   
   3b77   55 4e 4c 00   
   3b7b   52 45 41 00   
   3b7f   4f 50 45 00   
   3b83   41 54 54 00   	DB    "ATT",0, "*KIL", "DRI",0, "*EAT", "BUN",0, "FIN",0, "*LOC", "HEL",0, "SAY",0, "WIN",0
   3b87   2a 4b 49 4c   
   3b8b   44 52 49 00   
   3b8f   2a 45 41 54   
   3b93   42 55 4e 00   
   3b97   46 49 4e 00   
   3b9b   2a 4c 4f 43   
   3b9f   48 45 4c 00   
   3ba3   53 41 59 00   
   3ba7   57 49 4e 00   
   3bab   44 4f 4f 00   	DB    "DOO",0, "SCR",0, "*YEL", "*HOL", "NORT", "SOUT", "EAST", "WEST", "UP",0,0, "DOWN"
   3baf   53 43 52 00   
   3bb3   2a 59 45 4c   
   3bb7   2a 48 4f 4c   
   3bbb   4e 4f 52 54   
   3bbf   53 4f 55 54   
   3bc3   45 41 53 54   
   3bc7   57 45 53 54   
   3bcb   55 50 00 00   
   3bcf   44 4f 57 4e   
   3bd3   41 4e 59 00   	DB    "ANY",0, "NOR",0, "SOU",0, "EAS",0, "WES",0, "UP",0,0, "DOWN", "NET",0, "FIS",0, "AWA",0
   3bd7   4e 4f 52 00   
   3bdb   53 4f 55 00   
   3bdf   45 41 53 00   
   3be3   57 45 53 00   
   3be7   55 50 00 00   
   3beb   44 4f 57 4e   
   3bef   4e 45 54 00   
   3bf3   46 49 53 00   
   3bf7   41 57 41 00   
   3bfb   4d 49 52 00   	DB    "MIR",0, "AXE",0, "AXE",0, "WAT",0, "BOT",0, "GAM",0, "HOL",0, "LAM",0, "*ON",0, "OFF",0
   3bff   41 58 45 00   
   3c03   41 58 45 00   
   3c07   57 41 54 00   
   3c0b   42 4f 54 00   
   3c0f   47 41 4d 00   
   3c13   48 4f 4c 00   
   3c17   4c 41 4d 00   
   3c1b   2a 4f 4e 00   
   3c1f   4f 46 46 00   
   3c23   44 4f 4f 00   	DB    "DOO",0, "MUD",0, "*MED", "BEE",0, "SCO",0, "GAS",0, "FLI",0, "EGG",0, "OIL",0, "*SLI"
   3c27   4d 55 44 00   
   3c2b   2a 4d 45 44   
   3c2f   42 45 45 00   
   3c33   53 43 4f 00   
   3c37   47 41 53 00   
   3c3b   46 4c 49 00   
   3c3f   45 47 47 00   
   3c43   4f 49 4c 00   
   3c47   2a 53 4c 49   
   3c4b   4b 45 59 00   	DB    "KEY",0, "HEL",0, "BUN",0, "INV",0, "LED",0, "THR",0, "CRO",0, "BRI",0, "BEA",0, "DRA",0
   3c4f   48 45 4c 00   
   3c53   42 55 4e 00   
   3c57   49 4e 56 00   
   3c5b   4c 45 44 00   
   3c5f   54 48 52 00   
   3c63   43 52 4f 00   
   3c67   42 52 49 00   
   3c6b   42 45 41 00   
   3c6f   44 52 41 00   
   3c73   52 55 47 00   	DB    "RUG",0, "RUB",0, "HON",0, "FRU",0, "OX",0,0, "RIN",0, "CHI",0, "*BIT", "BRA",0, "SIG",0
   3c77   52 55 42 00   
   3c7b   48 4f 4e 00   
   3c7f   46 52 55 00   
   3c83   4f 58 00 00   
   3c87   52 49 4e 00   
   3c8b   43 48 49 00   
   3c8f   2a 42 49 54   
   3c93   42 52 41 00   
   3c97   53 49 47 00   
   3c9b   42 4c 41 00   	DB    "BLA",0, "WEB",0, "*WRI", "SWA",0, "LAV",0, "ARO",0, "HAL",0, "TRE",0, "*STU", "FIR",0
   3c9f   57 45 42 00   
   3ca3   2a 57 52 49   
   3ca7   53 57 41 00   
   3cab   4c 41 56 00   
   3caf   41 52 4f 00   
   3cb3   48 41 4c 00   
   3cb7   54 52 45 00   
   3cbb   2a 53 54 55   
   3cbf   46 49 52 00   
                        
                        ; Array DIR has dimensions 6 x 8
                        Array_DIR
   3cc3   4e 6f 72 74   	DB	"North",0,0,0
   3cc7   68 00 00 00   
   3ccb   53 6f 75 74   	DB	"South",0,0,0
   3ccf   68 00 00 00   
   3cd3   45 61 73 74   	DB	"East",0,0,0,0
   3cd7   00 00 00 00   
   3cdb   57 65 73 74   	DB	"West",0,0,0,0
   3cdf   00 00 00 00   
   3ce3   55 70 00 00   	DB	"Up",0,0,0,0,0,0
   3ce7   00 00 00 00   
   3ceb   44 6f 77 6e   	DB	"Down",0
   3cef   00            
                        
                        ; Array RM has dimensions 34 x 6
                        Array_RM
   3cf0   00 07 0a 01   	DB   0,  7, 10,  1,  0, 24
   3cf4   00 18         
   3cf6   17 01 01 19   	DB  23,  1,  1, 25,  0,  0
   3cfa   00 00         
   3cfc   00 00 00 00   	DB   0,  0,  0,  0,  0,  1
   3d00   00 01         
   3d02   01 01 01 01   	DB   1,  1,  1,  1,  1,  4
   3d06   01 04         
   3d08   00 00 00 00   	DB   0,  0,  0,  0,  3,  5
   3d0c   03 05         
   3d0e   00 00 00 00   	DB   0,  0,  0,  0,  4,  0
   3d12   04 00         
   3d14   00 00 00 00   	DB   0,  0,  0,  0,  5,  7
   3d18   05 07         
   3d1a   08 09 00 1b   	DB   8,  9,  0, 27,  6, 12
   3d1e   06 0c         
   3d20   00 07 00 00   	DB   0,  7,  0,  0,  0,  0
   3d24   00 00         
   3d26   07 00 00 00   	DB   7,  0,  0,  0, 20,  0
   3d2a   14 00         
   3d2c   0b 0a 00 01   	DB  11, 10,  0,  1,  0, 26
   3d30   00 1a         
   3d32   0b 0b 17 0b   	DB  11, 11, 23, 11,  0,  0      ; AR = 11
   3d36   00 00         
   3d38   0d 0f 0f 00   	DB  13, 15, 15,  0,  0, 13
   3d3c   00 0d         
   3d3e   00 00 00 0e   	DB   0,  0,  0, 14, 12,  0
   3d42   0c 00         
   3d44   11 0c 0d 10   	DB  17, 12, 13, 16, 16, 17
   3d48   10 11         
   3d4a   0c 00 0d 0c   	DB  12,  0, 13, 12, 13,  0
   3d4e   0d 00         
   3d50   00 11 00 00   	DB   0, 17,  0,  0, 14, 17
   3d54   0e 11         
   3d56   11 0c 0c 0f   	DB  17, 12, 12, 15, 14, 18
   3d5a   0e 12         
   3d5c   00 00 00 00   	DB   0,  0,  0,  0, 17,  0
   3d60   11 00         
   3d62   00 00 00 14   	DB   0,  0,  0, 20,  0,  0
   3d66   00 00         
   3d68   00 00 00 00   	DB   0,  0,  0,  0,  0,  9
   3d6c   00 09         
   3d6e   00 00 00 00   	DB   0,  0,  0,  0,  0,  0
   3d72   00 00         
   3d74   00 00 00 15   	DB   0,  0,  0, 21,  0,  0
   3d78   00 00         
   3d7a   0a 01 0a 0b   	DB  10,  1, 10, 11,  0,  0      ; 23
   3d7e   00 00         
   3d80   00 00 00 00   	DB   0,  0,  0,  0,  0,  0
   3d84   00 00         
   3d86   0b 00 01 0b   	DB  11,  0,  1, 11,  0,  0
   3d8a   00 00         
   3d8c   00 00 00 00   	DB   0,  0,  0,  0,  0,  0
   3d90   00 00         
   3d92   00 00 07 00   	DB   0,  0,  7,  0,  0,  0
   3d96   00 00         
   3d98   00 00 00 00   	DB   0,  0,  0,  0,  0, 11
   3d9c   00 0b         
   3d9e   00 00 00 00   	DB   0,  0,  0,  0,  0,  0
   3da2   00 00         
   3da4   00 00 00 00   	DB   0,  0,  0,  0,  0,  0
   3da8   00 00         
   3daa   00 00 00 00   	DB   0,  0,  0,  0,  0,  0
   3dae   00 00         
   3db0   00 00 00 00   	DB   0,  0,  0,  0,  0,  0
   3db4   00 00         
   3db6   00 18 0b 18   	DB   0, 24, 11, 24, 28, 24
   3dba   1c 18         
                        
                        
                        ; String table RSS has length 34
   3dbc   3e 00 3e 02   Table_RSS   DW  RSS00_Msg, RSS01_Msg, RSS02_Msg, RSS03_Msg, RSS04_Msg, RSS05_Msg, RSS06_Msg, RSS07_Msg, RSS08_Msg, RSS09_Msg
   3dc0   3e 10 3e 38   
   3dc4   3e 5e 3e 7c   
   3dc8   3e a0 3e b8   
   3dcc   3e c6 3e da   
   3dd0   3e ea 3f 07   	DW  RSS10_Msg, RSS11_Msg, RSS12_Msg, RSS13_Msg, RSS14_Msg, RSS15_Msg, RSS16_Msg, RSS17_Msg, RSS18_Msg, RSS19_Msg
   3dd4   3f 0f 3f 1d   
   3dd8   3f 2b 3f 39   
   3ddc   3f 47 3f 55   
   3de0   3f 63 3f b2   
   3de4   40 02 40 11   	DW  RSS20_Msg, RSS21_Msg, RSS22_Msg, RSS23_Msg, RSS24_Msg, RSS25_Msg, RSS26_Msg, RSS27_Msg, RSS28_Msg, RSS29_Msg
   3de8   40 60 40 6d   
   3dec   40 7b 40 c1   
   3df0   40 cf 40 df   
   3df4   41 0e 41 5f   
   3df8   41 61 41 63   	DW  RSS30_Msg, RSS31_Msg, RSS32_Msg, RSS33_Msg
   3dfc   41 65 41 67   
   3e00   20 00         RSS00_Msg   DB    " ", 0
   3e02   64 69 73 6d   RSS01_Msg   DB    "dismal swamp.", 0
   3e06   61 6c 20 73   
   3e0a   77 61 6d 70   
   3e0e   2e 00         
   3e10   2a 49 27 6d   RSS02_Msg   DB    "*I'm in the top of a tall cypress tree.", 0
   3e14   20 69 6e 20   
   3e18   74 68 65 20   
   3e1c   74 6f 70 20   
   3e20   6f 66 20 61   
   3e24   20 74 61 6c   
   3e28   6c 20 63 79   
   3e2c   70 72 65 73   
   3e30   73 20 74 72   
   3e34   65 65 2e 00   
   3e38   6c 61 72 67   RSS03_Msg   DB    "large hollow damp stump in the swamp.", 0
   3e3c   65 20 68 6f   
   3e40   6c 6c 6f 77   
   3e44   20 64 61 6d   
   3e48   70 20 73 74   
   3e4c   75 6d 70 20   
   3e50   69 6e 20 74   
   3e54   68 65 20 73   
   3e58   77 61 6d 70   
   3e5c   2e 00         
   3e5e   72 6f 6f 74   RSS04_Msg   DB    "root chamber under the stump.", 0
   3e62   20 63 68 61   
   3e66   6d 62 65 72   
   3e6a   20 75 6e 64   
   3e6e   65 72 20 74   
   3e72   68 65 20 73   
   3e76   74 75 6d 70   
   3e7a   2e 00         
   3e7c   73 65 6d 69   RSS05_Msg   DB    "semi-dark hole by the root chamber.", 0
   3e80   2d 64 61 72   
   3e84   6b 20 68 6f   
   3e88   6c 65 20 62   
   3e8c   79 20 74 68   
   3e90   65 20 72 6f   
   3e94   6f 74 20 63   
   3e98   68 61 6d 62   
   3e9c   65 72 2e 00   
   3ea0   6c 6f 6e 67   RSS06_Msg   DB    "long down-sloping hall.", 0
   3ea4   20 64 6f 77   
   3ea8   6e 2d 73 6c   
   3eac   6f 70 69 6e   
   3eb0   67 20 68 61   
   3eb4   6c 6c 2e 00   
   3eb8   6c 61 72 67   RSS07_Msg   DB    "large cavern.", 0
   3ebc   65 20 63 61   
   3ec0   76 65 72 6e   
   3ec4   2e 00         
   3ec6   6c 61 72 67   RSS08_Msg   DB    "large 8-sided room.", 0
   3eca   65 20 38 2d   
   3ece   73 69 64 65   
   3ed2   64 20 72 6f   
   3ed6   6f 6d 2e 00   
   3eda   72 6f 79 61   RSS09_Msg   DB    "royal anteroom.", 0
   3ede   6c 20 61 6e   
   3ee2   74 65 72 6f   
   3ee6   6f 6d 2e 00   
   3eea   2a 49 27 6d   RSS10_Msg   DB    "*I'm on the shore of a lake.", 0
   3eee   20 6f 6e 20   
   3ef2   74 68 65 20   
   3ef6   73 68 6f 72   
   3efa   65 20 6f 66   
   3efe   20 61 20 6c   
   3f02   61 6b 65 2e   
   3f06   00            
   3f07   66 6f 72 65   RSS11_Msg   DB    "forest.", 0
   3f0b   73 74 2e 00   
   3f0f   6d 61 7a 65   RSS12_Msg   DB    "maze of pits.", 0
   3f13   20 6f 66 20   
   3f17   70 69 74 73   
   3f1b   2e 00         
   3f1d   6d 61 7a 65   RSS13_Msg   DB    "maze of pits.", 0
   3f21   20 6f 66 20   
   3f25   70 69 74 73   
   3f29   2e 00         
   3f2b   6d 61 7a 65   RSS14_Msg   DB    "maze of pits.", 0
   3f2f   20 6f 66 20   
   3f33   70 69 74 73   
   3f37   2e 00         
   3f39   6d 61 7a 65   RSS15_Msg   DB    "maze of pits.", 0
   3f3d   20 6f 66 20   
   3f41   70 69 74 73   
   3f45   2e 00         
   3f47   6d 61 7a 65   RSS16_Msg   DB    "maze of pits.", 0
   3f4b   20 6f 66 20   
   3f4f   70 69 74 73   
   3f53   2e 00         
   3f55   6d 61 7a 65   RSS17_Msg   DB    "maze of pits.", 0
   3f59   20 6f 66 20   
   3f5d   70 69 74 73   
   3f61   2e 00         
   3f63   62 6f 74 74   RSS18_Msg   DB    "bottom of a chasm.  Above me there are 2 ledges. One has a bricked up",cr,lf,"window.", 0
   3f67   6f 6d 20 6f   
   3f6b   66 20 61 20   
   3f6f   63 68 61 73   
   3f73   6d 2e 20 20   
   3f77   41 62 6f 76   
   3f7b   65 20 6d 65   
   3f7f   20 74 68 65   
   3f83   72 65 20 61   
   3f87   72 65 20 32   
   3f8b   20 6c 65 64   
   3f8f   67 65 73 2e   
   3f93   20 4f 6e 65   
   3f97   20 68 61 73   
   3f9b   20 61 20 62   
   3f9f   72 69 63 6b   
   3fa3   65 64 20 75   
   3fa7   70 0d 0a 77   
   3fab   69 6e 64 6f   
   3faf   77 2e 00      
   3fb2   2a 49 27 6d   RSS19_Msg   DB    "*I'm on a narrow ledge over a chasm. Across the chasm is a ",esc,"[1mthrone",esc,"[0m room.", 0
   3fb6   20 6f 6e 20   
   3fba   61 20 6e 61   
   3fbe   72 72 6f 77   
   3fc2   20 6c 65 64   
   3fc6   67 65 20 6f   
   3fca   76 65 72 20   
   3fce   61 20 63 68   
   3fd2   61 73 6d 2e   
   3fd6   20 41 63 72   
   3fda   6f 73 73 20   
   3fde   74 68 65 20   
   3fe2   63 68 61 73   
   3fe6   6d 20 69 73   
   3fea   20 61 20 1b   
   3fee   5b 31 6d 74   
   3ff2   68 72 6f 6e   
   3ff6   65 1b 5b 30   
   3ffa   6d 20 72 6f   
   3ffe   6f 6d 2e 00   
   4002   72 6f 79 61   RSS20_Msg   DB    "royal chamber.", 0
   4006   6c 20 63 68   
   400a   61 6d 62 65   
   400e   72 2e 00      
   4011   2a 49 27 6d   RSS21_Msg   DB    "*I'm on a narrow ledge by the throne room.",cr,lf,"Across the chasm is another ledge.", 0
   4015   20 6f 6e 20   
   4019   61 20 6e 61   
   401d   72 72 6f 77   
   4021   20 6c 65 64   
   4025   67 65 20 62   
   4029   79 20 74 68   
   402d   65 20 74 68   
   4031   72 6f 6e 65   
   4035   20 72 6f 6f   
   4039   6d 2e 0d 0a   
   403d   41 63 72 6f   
   4041   73 73 20 74   
   4045   68 65 20 63   
   4049   68 61 73 6d   
   404d   20 69 73 20   
   4051   61 6e 6f 74   
   4055   68 65 72 20   
   4059   6c 65 64 67   
   405d   65 2e 00      
   4060   74 68 72 6f   RSS22_Msg   DB    "throne room.", 0
   4064   6e 65 20 72   
   4068   6f 6f 6d 2e   
   406c   00            
   406d   73 75 6e 6e   RSS23_Msg   DB    "sunny meadow.", 0
   4071   79 20 6d 65   
   4075   61 64 6f 77   
   4079   2e 00         
   407b   2a 1b 5b 31   RSS24_Msg   DB    "*",esc,"[1mI think I'm in real trouble.  Here's a guy with a pitchfork!",esc,"[0m", 0
   407f   6d 49 20 74   
   4083   68 69 6e 6b   
   4087   20 49 27 6d   
   408b   20 69 6e 20   
   408f   72 65 61 6c   
   4093   20 74 72 6f   
   4097   75 62 6c 65   
   409b   2e 20 20 48   
   409f   65 72 65 27   
   40a3   73 20 61 20   
   40a7   67 75 79 20   
   40ab   77 69 74 68   
   40af   20 61 20 70   
   40b3   69 74 63 68   
   40b7   66 6f 72 6b   
   40bb   21 1b 5b 30   
   40bf   6d 00         
   40c1   68 69 64 64   RSS25_Msg   DB    "hidden grove.", 0
   40c5   65 6e 20 67   
   40c9   72 6f 76 65   
   40cd   2e 00         
   40cf   71 75 69 63   RSS26_Msg   DB    "quick-sand bog.", 0
   40d3   6b 2d 73 61   
   40d7   6e 64 20 62   
   40db   6f 67 2e 00   
   40df   6d 65 6d 6f   RSS27_Msg   DB    "memory RAM of an IBM-PC.  I took a wrong turn!", 0
   40e3   72 79 20 52   
   40e7   41 4d 20 6f   
   40eb   66 20 61 6e   
   40ef   20 49 42 4d   
   40f3   2d 50 43 2e   
   40f7   20 20 49 20   
   40fb   74 6f 6f 6b   
   40ff   20 61 20 77   
   4103   72 6f 6e 67   
   4107   20 74 75 72   
   410b   6e 21 00      
   410e   62 72 61 6e   RSS28_Msg   DB    "branch on the top of an old oak tree.",cr,lf,"To the east I see a meadow beyond a lake.", 0
   4112   63 68 20 6f   
   4116   6e 20 74 68   
   411a   65 20 74 6f   
   411e   70 20 6f 66   
   4122   20 61 6e 20   
   4126   6f 6c 64 20   
   412a   6f 61 6b 20   
   412e   74 72 65 65   
   4132   2e 0d 0a 54   
   4136   6f 20 74 68   
   413a   65 20 65 61   
   413e   73 74 20 49   
   4142   20 73 65 65   
   4146   20 61 20 6d   
   414a   65 61 64 6f   
   414e   77 20 62 65   
   4152   79 6f 6e 64   
   4156   20 61 20 6c   
   415a   61 6b 65 2e   
   415e   00            
   415f   20 00         RSS29_Msg   DB    " ", 0
   4161   20 00         RSS30_Msg   DB    " ", 0
   4163   20 00         RSS31_Msg   DB    " ", 0
   4165   20 00         RSS32_Msg   DB    " ", 0
   4167   6c 61 72 67   RSS33_Msg   DB    "large misty room with strange letters over the exits.", 0
   416b   65 20 6d 69   
   416f   73 74 79 20   
   4173   72 6f 6f 6d   
   4177   20 77 69 74   
   417b   68 20 73 74   
   417f   72 61 6e 67   
   4183   65 20 6c 65   
   4187   74 74 65 72   
   418b   73 20 6f 76   
   418f   65 72 20 74   
   4193   68 65 20 65   
   4197   78 69 74 73   
   419b   2e 00         
                        
                        
                        ; String table MSS has length 81
   419d   42 3f 42 41   Table_MSS   DW  MSS00_Msg, MSS01_Msg, MSS02_Msg, MSS03_Msg, MSS04_Msg, MSS05_Msg, MSS06_Msg, MSS07_Msg, MSS08_Msg, MSS09_Msg
   41a1   42 54 42 c9   
   41a5   43 05 43 91   
   41a9   44 08 44 5a   
   41ad   44 c4 45 38   
   41b1   45 66 45 a8   	DW  MSS10_Msg, MSS11_Msg, MSS12_Msg, MSS13_Msg, MSS14_Msg, MSS15_Msg, MSS16_Msg, MSS17_Msg, MSS18_Msg, MSS19_Msg
   41b5   45 f6 46 24   
   41b9   46 5c 46 ba   
   41bd   47 1b 47 4c   
   41c1   47 ae 48 80   
   41c5   48 bf 49 12   	DW  MSS20_Msg, MSS21_Msg, MSS22_Msg, MSS23_Msg, MSS24_Msg, MSS25_Msg, MSS26_Msg, MSS27_Msg, MSS28_Msg, MSS29_Msg
   41c9   49 82 49 ee   
   41cd   4a 33 4a 5b   
   41d1   4a 96 4a f9   
   41d5   4b 47 4b d4   
   41d9   4c 20 4c 79   	DW  MSS30_Msg, MSS31_Msg, MSS32_Msg, MSS33_Msg, MSS34_Msg, MSS35_Msg, MSS36_Msg, MSS37_Msg, MSS38_Msg, MSS39_Msg
   41dd   4c f8 4d 4c   
   41e1   4d df 4e 04   
   41e5   4e 66 4e fc   
   41e9   4f 21 4f 59   
   41ed   4f bd 4f ff   	DW  MSS40_Msg, MSS41_Msg, MSS42_Msg, MSS43_Msg, MSS44_Msg, MSS45_Msg, MSS46_Msg, MSS47_Msg, MSS48_Msg, MSS49_Msg
   41f1   50 9b 51 02   
   41f5   51 6a 52 03   
   41f9   52 5c 52 aa   
   41fd   52 d1 53 2b   
   4201   53 80 53 ea   	DW  MSS50_Msg, MSS51_Msg, MSS52_Msg, MSS53_Msg, MSS54_Msg, MSS55_Msg, MSS56_Msg, MSS57_Msg, MSS58_Msg, MSS59_Msg
   4205   54 09 54 51   
   4209   54 68 54 a1   
   420d   54 ed 55 3d   
   4211   55 72 55 97   
   4215   55 c8 56 06   	DW  MSS60_Msg, MSS61_Msg, MSS62_Msg, MSS63_Msg, MSS64_Msg, MSS65_Msg, MSS66_Msg, MSS67_Msg, MSS68_Msg, MSS69_Msg
   4219   56 25 56 5b   
   421d   56 7f 56 b8   
   4221   56 fa 57 0d   
   4225   57 68 57 cf   
   4229   58 33 58 bb   	DW  MSS70_Msg, MSS71_Msg, MSS72_Msg, MSS73_Msg, MSS74_Msg, MSS75_Msg, MSS76_Msg, MSS77_Msg, MSS78_Msg, MSS79_Msg
   422d   58 dc 59 64   
   4231   59 d7 5a 1b   
   4235   5a 7a 5a b4   
   4239   5b 22 5b 7a   
   423d   5c 03         	DW  MSS80_Msg
   423f   20 00         MSS00_Msg   DB    " ", 0
   4241   4e 6f 74 68   MSS01_Msg   DB    "Nothing happens...", 0
   4245   69 6e 67 20   
   4249   68 61 70 70   
   424d   65 6e 73 2e   
   4251   2e 2e 00      
   4254   1b 5b 31 6d   MSS02_Msg   DB    esc,"[1mFocusing intently on the intricate patterns of the web, I am surprised to",cr,lf,"see the words: ",esc,"[36mCHOP IT DOWN!",esc,"[0m", 0
   4258   46 6f 63 75   
   425c   73 69 6e 67   
   4260   20 69 6e 74   
   4264   65 6e 74 6c   
   4268   79 20 6f 6e   
   426c   20 74 68 65   
   4270   20 69 6e 74   
   4274   72 69 63 61   
   4278   74 65 20 70   
   427c   61 74 74 65   
   4280   72 6e 73 20   
   4284   6f 66 20 74   
   4288   68 65 20 77   
   428c   65 62 2c 20   
   4290   49 20 61 6d   
   4294   20 73 75 72   
   4298   70 72 69 73   
   429c   65 64 20 74   
   42a0   6f 0d 0a 73   
   42a4   65 65 20 74   
   42a8   68 65 20 77   
   42ac   6f 72 64 73   
   42b0   3a 20 1b 5b   
   42b4   33 36 6d 43   
   42b8   48 4f 50 20   
   42bc   49 54 20 44   
   42c0   4f 57 4e 21   
   42c4   1b 5b 30 6d   
   42c8   00            
   42c9   1b 5b 31 6d   MSS03_Msg   DB    esc,"[1mGulp gulp gulp. I didn't realize how thirsty I was!",esc,"[0m", 0
   42cd   47 75 6c 70   
   42d1   20 67 75 6c   
   42d5   70 20 67 75   
   42d9   6c 70 2e 20   
   42dd   49 20 64 69   
   42e1   64 6e 27 74   
   42e5   20 72 65 61   
   42e9   6c 69 7a 65   
   42ed   20 68 6f 77   
   42f1   20 74 68 69   
   42f5   72 73 74 79   
   42f9   20 49 20 77   
   42fd   61 73 21 1b   
   4301   5b 30 6d 00   
   4305   1b 5b 31 6d   MSS04_Msg   DB    esc,"[1mThe dragon snorts and rumbles, smelling something offensive. It grimaces and",cr,lf,"opens its eyes, looking straight at me, then charges!",esc,"[0m", 0
   4309   54 68 65 20   
   430d   64 72 61 67   
   4311   6f 6e 20 73   
   4315   6e 6f 72 74   
   4319   73 20 61 6e   
   431d   64 20 72 75   
   4321   6d 62 6c 65   
   4325   73 2c 20 73   
   4329   6d 65 6c 6c   
   432d   69 6e 67 20   
   4331   73 6f 6d 65   
   4335   74 68 69 6e   
   4339   67 20 6f 66   
   433d   66 65 6e 73   
   4341   69 76 65 2e   
   4345   20 49 74 20   
   4349   67 72 69 6d   
   434d   61 63 65 73   
   4351   20 61 6e 64   
   4355   0d 0a 6f 70   
   4359   65 6e 73 20   
   435d   69 74 73 20   
   4361   65 79 65 73   
   4365   2c 20 6c 6f   
   4369   6f 6b 69 6e   
   436d   67 20 73 74   
   4371   72 61 69 67   
   4375   68 74 20 61   
   4379   74 20 6d 65   
   437d   2c 20 74 68   
   4381   65 6e 20 63   
   4385   68 61 72 67   
   4389   65 73 21 1b   
   438d   5b 30 6d 00   
   4391   1b 5b 31 6d   MSS05_Msg   DB    esc,"[1mI hurl the axe at the door and the spinning blade crashes into the lock,",cr,lf,"shattering it. The door swings open.",esc,"[0m", 0
   4395   49 20 68 75   
   4399   72 6c 20 74   
   439d   68 65 20 61   
   43a1   78 65 20 61   
   43a5   74 20 74 68   
   43a9   65 20 64 6f   
   43ad   6f 72 20 61   
   43b1   6e 64 20 74   
   43b5   68 65 20 73   
   43b9   70 69 6e 6e   
   43bd   69 6e 67 20   
   43c1   62 6c 61 64   
   43c5   65 20 63 72   
   43c9   61 73 68 65   
   43cd   73 20 69 6e   
   43d1   74 6f 20 74   
   43d5   68 65 20 6c   
   43d9   6f 63 6b 2c   
   43dd   0d 0a 73 68   
   43e1   61 74 74 65   
   43e5   72 69 6e 67   
   43e9   20 69 74 2e   
   43ed   20 54 68 65   
   43f1   20 64 6f 6f   
   43f5   72 20 73 77   
   43f9   69 6e 67 73   
   43fd   20 6f 70 65   
   4401   6e 2e 1b 5b   
   4405   30 6d 00      
   4408   1b 5b 31 6d   MSS06_Msg   DB    esc,"[1mI pull on the handle but it's no use; the door is secured with a padlock.",esc,"[0m", 0
   440c   49 20 70 75   
   4410   6c 6c 20 6f   
   4414   6e 20 74 68   
   4418   65 20 68 61   
   441c   6e 64 6c 65   
   4420   20 62 75 74   
   4424   20 69 74 27   
   4428   73 20 6e 6f   
   442c   20 75 73 65   
   4430   3b 20 74 68   
   4434   65 20 64 6f   
   4438   6f 72 20 69   
   443c   73 20 73 65   
   4440   63 75 72 65   
   4444   64 20 77 69   
   4448   74 68 20 61   
   444c   20 70 61 64   
   4450   6c 6f 63 6b   
   4454   2e 1b 5b 30   
   4458   6d 00         
   445a   1b 5b 31 6d   MSS07_Msg   DB    esc,"[1mI saw a flash of light as the treetop crashed to the ground. Something was",cr,lf,"lost in the branches.",esc,"[0m", 0
   445e   49 20 73 61   
   4462   77 20 61 20   
   4466   66 6c 61 73   
   446a   68 20 6f 66   
   446e   20 6c 69 67   
   4472   68 74 20 61   
   4476   73 20 74 68   
   447a   65 20 74 72   
   447e   65 65 74 6f   
   4482   70 20 63 72   
   4486   61 73 68 65   
   448a   64 20 74 6f   
   448e   20 74 68 65   
   4492   20 67 72 6f   
   4496   75 6e 64 2e   
   449a   20 53 6f 6d   
   449e   65 74 68 69   
   44a2   6e 67 20 77   
   44a6   61 73 0d 0a   
   44aa   6c 6f 73 74   
   44ae   20 69 6e 20   
   44b2   74 68 65 20   
   44b6   62 72 61 6e   
   44ba   63 68 65 73   
   44be   2e 1b 5b 30   
   44c2   6d 00         
   44c4   1b 5b 31 6d   MSS08_Msg   DB    esc,"[1mI swing the axe over and over. Chop! Chop! Chop! After a few minutes the giant",cr,lf,"tree heaves over. TIMBER...",esc,"[0m", 0
   44c8   49 20 73 77   
   44cc   69 6e 67 20   
   44d0   74 68 65 20   
   44d4   61 78 65 20   
   44d8   6f 76 65 72   
   44dc   20 61 6e 64   
   44e0   20 6f 76 65   
   44e4   72 2e 20 43   
   44e8   68 6f 70 21   
   44ec   20 43 68 6f   
   44f0   70 21 20 43   
   44f4   68 6f 70 21   
   44f8   20 41 66 74   
   44fc   65 72 20 61   
   4500   20 66 65 77   
   4504   20 6d 69 6e   
   4508   75 74 65 73   
   450c   20 74 68 65   
   4510   20 67 69 61   
   4514   6e 74 0d 0a   
   4518   74 72 65 65   
   451c   20 68 65 61   
   4520   76 65 73 20   
   4524   6f 76 65 72   
   4528   2e 20 54 49   
   452c   4d 42 45 52   
   4530   2e 2e 2e 1b   
   4534   5b 30 6d 00   
   4538   1b 5b 31 6d   MSS09_Msg   DB    esc,"[1mOne quick puff extinguishes the lamp.",esc,"[0m", 0
   453c   4f 6e 65 20   
   4540   71 75 69 63   
   4544   6b 20 70 75   
   4548   66 66 20 65   
   454c   78 74 69 6e   
   4550   67 75 69 73   
   4554   68 65 73 20   
   4558   74 68 65 20   
   455c   6c 61 6d 70   
   4560   2e 1b 5b 30   
   4564   6d 00         
   4566   1b 5b 31 6d   MSS10_Msg   DB    esc,"[1mThe lamp pops on and bathes the room in a soft warm glow.",esc,"[0m", 0
   456a   54 68 65 20   
   456e   6c 61 6d 70   
   4572   20 70 6f 70   
   4576   73 20 6f 6e   
   457a   20 61 6e 64   
   457e   20 62 61 74   
   4582   68 65 73 20   
   4586   74 68 65 20   
   458a   72 6f 6f 6d   
   458e   20 69 6e 20   
   4592   61 20 73 6f   
   4596   66 74 20 77   
   459a   61 72 6d 20   
   459e   67 6c 6f 77   
   45a2   2e 1b 5b 30   
   45a6   6d 00         
   45a8   1b 5b 31 6d   MSS11_Msg   DB    esc,"[1mAs I'm gathering up the web, the spider darts over and bites my hand!",esc,"[0m", 0
   45ac   41 73 20 49   
   45b0   27 6d 20 67   
   45b4   61 74 68 65   
   45b8   72 69 6e 67   
   45bc   20 75 70 20   
   45c0   74 68 65 20   
   45c4   77 65 62 2c   
   45c8   20 74 68 65   
   45cc   20 73 70 69   
   45d0   64 65 72 20   
   45d4   64 61 72 74   
   45d8   73 20 6f 76   
   45dc   65 72 20 61   
   45e0   6e 64 20 62   
   45e4   69 74 65 73   
   45e8   20 6d 79 20   
   45ec   68 61 6e 64   
   45f0   21 1b 5b 30   
   45f4   6d 00         
   45f6   1b 5b 31 3b   MSS12_Msg   DB    esc,"[1;31mMy chigger bites are now infected.",esc,"[0m", 0
   45fa   33 31 6d 4d   
   45fe   79 20 63 68   
   4602   69 67 67 65   
   4606   72 20 62 69   
   460a   74 65 73 20   
   460e   61 72 65 20   
   4612   6e 6f 77 20   
   4616   69 6e 66 65   
   461a   63 74 65 64   
   461e   2e 1b 5b 30   
   4622   6d 00         
   4624   1b 5b 31 3b   MSS13_Msg   DB    esc,"[1;31mThe chigger bites have rotted my whole body.",esc,"[0m", 0
   4628   33 31 6d 54   
   462c   68 65 20 63   
   4630   68 69 67 67   
   4634   65 72 20 62   
   4638   69 74 65 73   
   463c   20 68 61 76   
   4640   65 20 72 6f   
   4644   74 74 65 64   
   4648   20 6d 79 20   
   464c   77 68 6f 6c   
   4650   65 20 62 6f   
   4654   64 79 2e 1b   
   4658   5b 30 6d 00   
   465c   1b 5b 31 6d   MSS14_Msg   DB    esc,"[1mThe bear lumbers over to the honey, voraciously slurps it all up,",cr,lf,"then falls asleep.",esc,"[0m", 0
   4660   54 68 65 20   
   4664   62 65 61 72   
   4668   20 6c 75 6d   
   466c   62 65 72 73   
   4670   20 6f 76 65   
   4674   72 20 74 6f   
   4678   20 74 68 65   
   467c   20 68 6f 6e   
   4680   65 79 2c 20   
   4684   76 6f 72 61   
   4688   63 69 6f 75   
   468c   73 6c 79 20   
   4690   73 6c 75 72   
   4694   70 73 20 69   
   4698   74 20 61 6c   
   469c   6c 20 75 70   
   46a0   2c 0d 0a 74   
   46a4   68 65 6e 20   
   46a8   66 61 6c 6c   
   46ac   73 20 61 73   
   46b0   6c 65 65 70   
   46b4   2e 1b 5b 30   
   46b8   6d 00         
   46ba   1b 5b 31 3b   MSS15_Msg   DB    esc,"[1;31mThe bees buzz loudly and swarm angrily around me, then begin to sting me",cr,lf,"all over...",esc,"[0m", 0
   46be   33 31 6d 54   
   46c2   68 65 20 62   
   46c6   65 65 73 20   
   46ca   62 75 7a 7a   
   46ce   20 6c 6f 75   
   46d2   64 6c 79 20   
   46d6   61 6e 64 20   
   46da   73 77 61 72   
   46de   6d 20 61 6e   
   46e2   67 72 69 6c   
   46e6   79 20 61 72   
   46ea   6f 75 6e 64   
   46ee   20 6d 65 2c   
   46f2   20 74 68 65   
   46f6   6e 20 62 65   
   46fa   67 69 6e 20   
   46fe   74 6f 20 73   
   4702   74 69 6e 67   
   4706   20 6d 65 0d   
   470a   0a 61 6c 6c   
   470e   20 6f 76 65   
   4712   72 2e 2e 2e   
   4716   1b 5b 30 6d   
   471a   00            
   471b   1b 5b 31 6d   MSS16_Msg   DB    esc,"[1mI don't have any container to put it in!",esc,"[0m", 0
   471f   49 20 64 6f   
   4723   6e 27 74 20   
   4727   68 61 76 65   
   472b   20 61 6e 79   
   472f   20 63 6f 6e   
   4733   74 61 69 6e   
   4737   65 72 20 74   
   473b   6f 20 70 75   
   473f   74 20 69 74   
   4743   20 69 6e 21   
   4747   1b 5b 30 6d   
   474b   00            
   474c   1b 5b 31 6d   MSS17_Msg   DB    esc,"[1mI just noticed that the buzzing has stopped. The bees have all suffocated",cr,lf,"in the bottle.",esc,"[0m", 0
   4750   49 20 6a 75   
   4754   73 74 20 6e   
   4758   6f 74 69 63   
   475c   65 64 20 74   
   4760   68 61 74 20   
   4764   74 68 65 20   
   4768   62 75 7a 7a   
   476c   69 6e 67 20   
   4770   68 61 73 20   
   4774   73 74 6f 70   
   4778   70 65 64 2e   
   477c   20 54 68 65   
   4780   20 62 65 65   
   4784   73 20 68 61   
   4788   76 65 20 61   
   478c   6c 6c 20 73   
   4790   75 66 66 6f   
   4794   63 61 74 65   
   4798   64 0d 0a 69   
   479c   6e 20 74 68   
   47a0   65 20 62 6f   
   47a4   74 74 6c 65   
   47a8   2e 1b 5b 30   
   47ac   6d 00         
   47ae   1b 5b 31 6d   MSS18_Msg   DB    esc,"[1mI speak the ",esc,"[35mmagic",esc,"[37m word and begin to feel dizzy. "
   47b2   49 20 73 70   
   47b6   65 61 6b 20   
   47ba   74 68 65 20   
   47be   1b 5b 33 35   
   47c2   6d 6d 61 67   
   47c6   69 63 1b 5b   
   47ca   33 37 6d 20   
   47ce   77 6f 72 64   
   47d2   20 61 6e 64   
   47d6   20 62 65 67   
   47da   69 6e 20 74   
   47de   6f 20 66 65   
   47e2   65 6c 20 64   
   47e6   69 7a 7a 79   
   47ea   2e 20         
   47ec   54 68 65 20   	    DB    "The world spins around me",cr,lf,"and I close my eyes. After breathing slowly for a few seconds, I open",cr,lf,"my eyes to find that I have been transported.",esc,"[0m", 0
   47f0   77 6f 72 6c   
   47f4   64 20 73 70   
   47f8   69 6e 73 20   
   47fc   61 72 6f 75   
   4800   6e 64 20 6d   
   4804   65 0d 0a 61   
   4808   6e 64 20 49   
   480c   20 63 6c 6f   
   4810   73 65 20 6d   
   4814   79 20 65 79   
   4818   65 73 2e 20   
   481c   41 66 74 65   
   4820   72 20 62 72   
   4824   65 61 74 68   
   4828   69 6e 67 20   
   482c   73 6c 6f 77   
   4830   6c 79 20 66   
   4834   6f 72 20 61   
   4838   20 66 65 77   
   483c   20 73 65 63   
   4840   6f 6e 64 73   
   4844   2c 20 49 20   
   4848   6f 70 65 6e   
   484c   0d 0a 6d 79   
   4850   20 65 79 65   
   4854   73 20 74 6f   
   4858   20 66 69 6e   
   485c   64 20 74 68   
   4860   61 74 20 49   
   4864   20 68 61 76   
   4868   65 20 62 65   
   486c   65 6e 20 74   
   4870   72 61 6e 73   
   4874   70 6f 72 74   
   4878   65 64 2e 1b   
   487c   5b 30 6d 00   
   4880   1b 5b 31 6d   MSS19_Msg   DB    esc,"[1mI don't have anything that I can use to light the gas!",esc,"[0m", 0
   4884   49 20 64 6f   
   4888   6e 27 74 20   
   488c   68 61 76 65   
   4890   20 61 6e 79   
   4894   74 68 69 6e   
   4898   67 20 74 68   
   489c   61 74 20 49   
   48a0   20 63 61 6e   
   48a4   20 75 73 65   
   48a8   20 74 6f 20   
   48ac   6c 69 67 68   
   48b0   74 20 74 68   
   48b4   65 20 67 61   
   48b8   73 21 1b 5b   
   48bc   30 6d 00      
   48bf   1b 5b 31 6d   MSS20_Msg   DB    esc,"[1mThe gas bladder explodes with a loud BANG! A cloud of dust slowly settles.",esc,"[0m", 0
   48c3   54 68 65 20   
   48c7   67 61 73 20   
   48cb   62 6c 61 64   
   48cf   64 65 72 20   
   48d3   65 78 70 6c   
   48d7   6f 64 65 73   
   48db   20 77 69 74   
   48df   68 20 61 20   
   48e3   6c 6f 75 64   
   48e7   20 42 41 4e   
   48eb   47 21 20 41   
   48ef   20 63 6c 6f   
   48f3   75 64 20 6f   
   48f7   66 20 64 75   
   48fb   73 74 20 73   
   48ff   6c 6f 77 6c   
   4903   79 20 73 65   
   4907   74 74 6c 65   
   490b   73 2e 1b 5b   
   490f   30 6d 00      
   4912   1b 5b 31 3b   MSS21_Msg   DB    esc,"[1;31mThe gas bladder explodes violently in my hands and knocks me backwards. I hit",cr,lf,"my head on something.",esc,"[0m", 0
   4916   33 31 6d 54   
   491a   68 65 20 67   
   491e   61 73 20 62   
   4922   6c 61 64 64   
   4926   65 72 20 65   
   492a   78 70 6c 6f   
   492e   64 65 73 20   
   4932   76 69 6f 6c   
   4936   65 6e 74 6c   
   493a   79 20 69 6e   
   493e   20 6d 79 20   
   4942   68 61 6e 64   
   4946   73 20 61 6e   
   494a   64 20 6b 6e   
   494e   6f 63 6b 73   
   4952   20 6d 65 20   
   4956   62 61 63 6b   
   495a   77 61 72 64   
   495e   73 2e 20 49   
   4962   20 68 69 74   
   4966   0d 0a 6d 79   
   496a   20 68 65 61   
   496e   64 20 6f 6e   
   4972   20 73 6f 6d   
   4976   65 74 68 69   
   497a   6e 67 2e 1b   
   497e   5b 30 6d 00   
   4982   1b 5b 31 6d   MSS22_Msg   DB    esc,"[1mAn eerie blue flame glows for a few seconds then goes out. That was neat",cr,lf,"but didn't help you much.",esc,"[0m", 0
   4986   41 6e 20 65   
   498a   65 72 69 65   
   498e   20 62 6c 75   
   4992   65 20 66 6c   
   4996   61 6d 65 20   
   499a   67 6c 6f 77   
   499e   73 20 66 6f   
   49a2   72 20 61 20   
   49a6   66 65 77 20   
   49aa   73 65 63 6f   
   49ae   6e 64 73 20   
   49b2   74 68 65 6e   
   49b6   20 67 6f 65   
   49ba   73 20 6f 75   
   49be   74 2e 20 54   
   49c2   68 61 74 20   
   49c6   77 61 73 20   
   49ca   6e 65 61 74   
   49ce   0d 0a 62 75   
   49d2   74 20 64 69   
   49d6   64 6e 27 74   
   49da   20 68 65 6c   
   49de   70 20 79 6f   
   49e2   75 20 6d 75   
   49e6   63 68 2e 1b   
   49ea   5b 30 6d 00   
   49ee   1b 5b 31 6d   MSS23_Msg   DB    esc,"[1mFffffffff. The swamp gas all rushes out of the wine bladder.",esc,"[0m", 0
   49f2   46 66 66 66   
   49f6   66 66 66 66   
   49fa   66 2e 20 54   
   49fe   68 65 20 73   
   4a02   77 61 6d 70   
   4a06   20 67 61 73   
   4a0a   20 61 6c 6c   
   4a0e   20 72 75 73   
   4a12   68 65 73 20   
   4a16   6f 75 74 20   
   4a1a   6f 66 20 74   
   4a1e   68 65 20 77   
   4a22   69 6e 65 20   
   4a26   62 6c 61 64   
   4a2a   64 65 72 2e   
   4a2e   1b 5b 30 6d   
   4a32   00            
   4a33   1b 5b 31 6d   MSS24_Msg   DB    esc,"[1mI don't think that's flammable.",esc,"[0m", 0
   4a37   49 20 64 6f   
   4a3b   6e 27 74 20   
   4a3f   74 68 69 6e   
   4a43   6b 20 74 68   
   4a47   61 74 27 73   
   4a4b   20 66 6c 61   
   4a4f   6d 6d 61 62   
   4a53   6c 65 2e 1b   
   4a57   5b 30 6d 00   
   4a5b   1b 5b 31 6d   MSS25_Msg   DB    esc,"[1mHow do you want me to get across the chasm? Jump?!",esc,"[0m", 0
   4a5f   48 6f 77 20   
   4a63   64 6f 20 79   
   4a67   6f 75 20 77   
   4a6b   61 6e 74 20   
   4a6f   6d 65 20 74   
   4a73   6f 20 67 65   
   4a77   74 20 61 63   
   4a7b   72 6f 73 73   
   4a7f   20 74 68 65   
   4a83   20 63 68 61   
   4a87   73 6d 3f 20   
   4a8b   4a 75 6d 70   
   4a8f   3f 21 1b 5b   
   4a93   30 6d 00      
   4a96   1b 5b 31 6d   MSS26_Msg   DB    esc,"[1mTo be honest, I'm too scared of the bear to do that. I need to get him out of",cr,lf,"here first.",esc,"[0m", 0
   4a9a   54 6f 20 62   
   4a9e   65 20 68 6f   
   4aa2   6e 65 73 74   
   4aa6   2c 20 49 27   
   4aaa   6d 20 74 6f   
   4aae   6f 20 73 63   
   4ab2   61 72 65 64   
   4ab6   20 6f 66 20   
   4aba   74 68 65 20   
   4abe   62 65 61 72   
   4ac2   20 74 6f 20   
   4ac6   64 6f 20 74   
   4aca   68 61 74 2e   
   4ace   20 49 20 6e   
   4ad2   65 65 64 20   
   4ad6   74 6f 20 67   
   4ada   65 74 20 68   
   4ade   69 6d 20 6f   
   4ae2   75 74 20 6f   
   4ae6   66 0d 0a 68   
   4aea   65 72 65 20   
   4aee   66 69 72 73   
   4af2   74 2e 1b 5b   
   4af6   30 6d 00      
   4af9   1b 5b 31 6d   MSS27_Msg   DB    esc,"[1mDon't waste ",esc,"[33m*HONEY*",esc,"[37m.  Get mad instead.  Dam ",esc,"[31mlava",esc,"[37m!",esc,"[0m", 0
   4afd   44 6f 6e 27   
   4b01   74 20 77 61   
   4b05   73 74 65 20   
   4b09   1b 5b 33 33   
   4b0d   6d 2a 48 4f   
   4b11   4e 45 59 2a   
   4b15   1b 5b 33 37   
   4b19   6d 2e 20 20   
   4b1d   47 65 74 20   
   4b21   6d 61 64 20   
   4b25   69 6e 73 74   
   4b29   65 61 64 2e   
   4b2d   20 20 44 61   
   4b31   6d 20 1b 5b   
   4b35   33 31 6d 6c   
   4b39   61 76 61 1b   
   4b3d   5b 33 37 6d   
   4b41   21 1b 5b 30   
   4b45   6d 00         
   4b47   1b 5b 31 6d   MSS28_Msg   DB    esc,"[1mThe bees escape from the bottle, buzzing loudly. The bear hears them, looks",cr,lf,"angrily at me, and then ",esc,"[31mcharges to attack me",esc,"[37m!",esc,"[0m", 0
   4b4b   54 68 65 20   
   4b4f   62 65 65 73   
   4b53   20 65 73 63   
   4b57   61 70 65 20   
   4b5b   66 72 6f 6d   
   4b5f   20 74 68 65   
   4b63   20 62 6f 74   
   4b67   74 6c 65 2c   
   4b6b   20 62 75 7a   
   4b6f   7a 69 6e 67   
   4b73   20 6c 6f 75   
   4b77   64 6c 79 2e   
   4b7b   20 54 68 65   
   4b7f   20 62 65 61   
   4b83   72 20 68 65   
   4b87   61 72 73 20   
   4b8b   74 68 65 6d   
   4b8f   2c 20 6c 6f   
   4b93   6f 6b 73 0d   
   4b97   0a 61 6e 67   
   4b9b   72 69 6c 79   
   4b9f   20 61 74 20   
   4ba3   6d 65 2c 20   
   4ba7   61 6e 64 20   
   4bab   74 68 65 6e   
   4baf   20 1b 5b 33   
   4bb3   31 6d 63 68   
   4bb7   61 72 67 65   
   4bbb   73 20 74 6f   
   4bbf   20 61 74 74   
   4bc3   61 63 6b 20   
   4bc7   6d 65 1b 5b   
   4bcb   33 37 6d 21   
   4bcf   1b 5b 30 6d   
   4bd3   00            
   4bd4   1b 5b 31 6d   MSS29_Msg   DB    esc,"[1mI pour out the bottle, its former contents soaking into the ground.",esc,"[0m", 0
   4bd8   49 20 70 6f   
   4bdc   75 72 20 6f   
   4be0   75 74 20 74   
   4be4   68 65 20 62   
   4be8   6f 74 74 6c   
   4bec   65 2c 20 69   
   4bf0   74 73 20 66   
   4bf4   6f 72 6d 65   
   4bf8   72 20 63 6f   
   4bfc   6e 74 65 6e   
   4c00   74 73 20 73   
   4c04   6f 61 6b 69   
   4c08   6e 67 20 69   
   4c0c   6e 74 6f 20   
   4c10   74 68 65 20   
   4c14   67 72 6f 75   
   4c18   6e 64 2e 1b   
   4c1c   5b 30 6d 00   
   4c20   1b 5b 33 36   MSS30_Msg   DB    esc,"[36mUsing only one word, tell me at what object you would like me to throw the axe.",esc,"[0m", 0
   4c24   6d 55 73 69   
   4c28   6e 67 20 6f   
   4c2c   6e 6c 79 20   
   4c30   6f 6e 65 20   
   4c34   77 6f 72 64   
   4c38   2c 20 74 65   
   4c3c   6c 6c 20 6d   
   4c40   65 20 61 74   
   4c44   20 77 68 61   
   4c48   74 20 6f 62   
   4c4c   6a 65 63 74   
   4c50   20 79 6f 75   
   4c54   20 77 6f 75   
   4c58   6c 64 20 6c   
   4c5c   69 6b 65 20   
   4c60   6d 65 20 74   
   4c64   6f 20 74 68   
   4c68   72 6f 77 20   
   4c6c   74 68 65 20   
   4c70   61 78 65 2e   
   4c74   1b 5b 30 6d   
   4c78   00            
   4c79   1b 5b 31 6d   MSS31_Msg   DB    esc,"[1mI send the axe spinning towards the bear, but he dodges to the side, and then",cr,lf,"I hear a CRASH! Oh no, something broke.",esc,"[0m", 0
   4c7d   49 20 73 65   
   4c81   6e 64 20 74   
   4c85   68 65 20 61   
   4c89   78 65 20 73   
   4c8d   70 69 6e 6e   
   4c91   69 6e 67 20   
   4c95   74 6f 77 61   
   4c99   72 64 73 20   
   4c9d   74 68 65 20   
   4ca1   62 65 61 72   
   4ca5   2c 20 62 75   
   4ca9   74 20 68 65   
   4cad   20 64 6f 64   
   4cb1   67 65 73 20   
   4cb5   74 6f 20 74   
   4cb9   68 65 20 73   
   4cbd   69 64 65 2c   
   4cc1   20 61 6e 64   
   4cc5   20 74 68 65   
   4cc9   6e 0d 0a 49   
   4ccd   20 68 65 61   
   4cd1   72 20 61 20   
   4cd5   43 52 41 53   
   4cd9   48 21 20 4f   
   4cdd   68 20 6e 6f   
   4ce1   2c 20 73 6f   
   4ce5   6d 65 74 68   
   4ce9   69 6e 67 20   
   4ced   62 72 6f 6b   
   4cf1   65 2e 1b 5b   
   4cf5   30 6d 00      
   4cf8   1b 5b 31 6d   MSS32_Msg   DB    esc,"[1mI gather up an armload of bricks, straining under the load. They are heavy!",esc,"[0m", 0
   4cfc   49 20 67 61   
   4d00   74 68 65 72   
   4d04   20 75 70 20   
   4d08   61 6e 20 61   
   4d0c   72 6d 6c 6f   
   4d10   61 64 20 6f   
   4d14   66 20 62 72   
   4d18   69 63 6b 73   
   4d1c   2c 20 73 74   
   4d20   72 61 69 6e   
   4d24   69 6e 67 20   
   4d28   75 6e 64 65   
   4d2c   72 20 74 68   
   4d30   65 20 6c 6f   
   4d34   61 64 2e 20   
   4d38   54 68 65 79   
   4d3c   20 61 72 65   
   4d40   20 68 65 61   
   4d44   76 79 21 1b   
   4d48   5b 30 6d 00   
   4d4c   1b 5b 31 6d   MSS33_Msg   DB    esc,"[1mWith all my strength, I jump heroically off the ledge, but I'm carrying too",cr,lf,"much weight and don't make it across, falling into the chasm.",esc,"[0m", 0
   4d50   57 69 74 68   
   4d54   20 61 6c 6c   
   4d58   20 6d 79 20   
   4d5c   73 74 72 65   
   4d60   6e 67 74 68   
   4d64   2c 20 49 20   
   4d68   6a 75 6d 70   
   4d6c   20 68 65 72   
   4d70   6f 69 63 61   
   4d74   6c 6c 79 20   
   4d78   6f 66 66 20   
   4d7c   74 68 65 20   
   4d80   6c 65 64 67   
   4d84   65 2c 20 62   
   4d88   75 74 20 49   
   4d8c   27 6d 20 63   
   4d90   61 72 72 79   
   4d94   69 6e 67 20   
   4d98   74 6f 6f 0d   
   4d9c   0a 6d 75 63   
   4da0   68 20 77 65   
   4da4   69 67 68 74   
   4da8   20 61 6e 64   
   4dac   20 64 6f 6e   
   4db0   27 74 20 6d   
   4db4   61 6b 65 20   
   4db8   69 74 20 61   
   4dbc   63 72 6f 73   
   4dc0   73 2c 20 66   
   4dc4   61 6c 6c 69   
   4dc8   6e 67 20 69   
   4dcc   6e 74 6f 20   
   4dd0   74 68 65 20   
   4dd4   63 68 61 73   
   4dd8   6d 2e 1b 5b   
   4ddc   30 6d 00      
   4ddf   54 6f 20 65   MSS34_Msg   DB    "To exit the game, say -",esc,"[1mQUIT",esc,"[0m-", 0
   4de3   78 69 74 20   
   4de7   74 68 65 20   
   4deb   67 61 6d 65   
   4def   2c 20 73 61   
   4df3   79 20 2d 1b   
   4df7   5b 31 6d 51   
   4dfb   55 49 54 1b   
   4dff   5b 30 6d 2d   
   4e03   00            
   4e04   1b 5b 31 3b   MSS35_Msg   DB    esc,"[1;31mThe mirror slips out of my hands, hits the floor, and shatters into a million",cr,lf,"pieces.",esc,"[0m", 0
   4e08   33 31 6d 54   
   4e0c   68 65 20 6d   
   4e10   69 72 72 6f   
   4e14   72 20 73 6c   
   4e18   69 70 73 20   
   4e1c   6f 75 74 20   
   4e20   6f 66 20 6d   
   4e24   79 20 68 61   
   4e28   6e 64 73 2c   
   4e2c   20 68 69 74   
   4e30   73 20 74 68   
   4e34   65 20 66 6c   
   4e38   6f 6f 72 2c   
   4e3c   20 61 6e 64   
   4e40   20 73 68 61   
   4e44   74 74 65 72   
   4e48   73 20 69 6e   
   4e4c   74 6f 20 61   
   4e50   20 6d 69 6c   
   4e54   6c 69 6f 6e   
   4e58   0d 0a 70 69   
   4e5c   65 63 65 73   
   4e60   2e 1b 5b 30   
   4e64   6d 00         
   4e66   1b 5b 31 6d   MSS36_Msg   DB    esc,"[1mThe mirror slips out of my hands but miraculously lands softly on the rug.",cr,lf,"It then begins to glow, and a message appears: ", esc,"[33mDRAGON STINGS",esc,"[0m", 0
   4e6a   54 68 65 20   
   4e6e   6d 69 72 72   
   4e72   6f 72 20 73   
   4e76   6c 69 70 73   
   4e7a   20 6f 75 74   
   4e7e   20 6f 66 20   
   4e82   6d 79 20 68   
   4e86   61 6e 64 73   
   4e8a   20 62 75 74   
   4e8e   20 6d 69 72   
   4e92   61 63 75 6c   
   4e96   6f 75 73 6c   
   4e9a   79 20 6c 61   
   4e9e   6e 64 73 20   
   4ea2   73 6f 66 74   
   4ea6   6c 79 20 6f   
   4eaa   6e 20 74 68   
   4eae   65 20 72 75   
   4eb2   67 2e 0d 0a   
   4eb6   49 74 20 74   
   4eba   68 65 6e 20   
   4ebe   62 65 67 69   
   4ec2   6e 73 20 74   
   4ec6   6f 20 67 6c   
   4eca   6f 77 2c 20   
   4ece   61 6e 64 20   
   4ed2   61 20 6d 65   
   4ed6   73 73 61 67   
   4eda   65 20 61 70   
   4ede   70 65 61 72   
   4ee2   73 3a 20 1b   
   4ee6   5b 33 33 6d   
   4eea   44 52 41 47   
   4eee   4f 4e 20 53   
   4ef2   54 49 4e 47   
   4ef6   53 1b 5b 30   
   4efa   6d 00         
   4efc   1b 5b 31 3b   MSS37_Msg   DB    esc,"[1;31mYou lost *ALL* treasures.",esc,"[0m", 0
   4f00   33 31 6d 59   
   4f04   6f 75 20 6c   
   4f08   6f 73 74 20   
   4f0c   2a 41 4c 4c   
   4f10   2a 20 74 72   
   4f14   65 61 73 75   
   4f18   72 65 73 2e   
   4f1c   1b 5b 30 6d   
   4f20   00            
   4f21   1b 5b 31 6d   MSS38_Msg   DB    esc,"[1mI'm not carrying the axe. Try 'TAKE INVENTORY'!",esc,"[0m", 0
   4f25   49 27 6d 20   
   4f29   6e 6f 74 20   
   4f2d   63 61 72 72   
   4f31   79 69 6e 67   
   4f35   20 74 68 65   
   4f39   20 61 78 65   
   4f3d   2e 20 54 72   
   4f41   79 20 27 54   
   4f45   41 4b 45 20   
   4f49   49 4e 56 45   
   4f4d   4e 54 4f 52   
   4f51   59 27 21 1b   
   4f55   5b 30 6d 00   
   4f59   1b 5b 31 6d   MSS39_Msg   DB    esc,"[1mThe axe ricochets wildly off of the dragon's thick hide.",cr,lf,"The dragon does not even wake up.",esc,"[0m", 0
   4f5d   54 68 65 20   
   4f61   61 78 65 20   
   4f65   72 69 63 6f   
   4f69   63 68 65 74   
   4f6d   73 20 77 69   
   4f71   6c 64 6c 79   
   4f75   20 6f 66 66   
   4f79   20 6f 66 20   
   4f7d   74 68 65 20   
   4f81   64 72 61 67   
   4f85   6f 6e 27 73   
   4f89   20 74 68 69   
   4f8d   63 6b 20 68   
   4f91   69 64 65 2e   
   4f95   0d 0a 54 68   
   4f99   65 20 64 72   
   4f9d   61 67 6f 6e   
   4fa1   20 64 6f 65   
   4fa5   73 20 6e 6f   
   4fa9   74 20 65 76   
   4fad   65 6e 20 77   
   4fb1   61 6b 65 20   
   4fb5   75 70 2e 1b   
   4fb9   5b 30 6d 00   
   4fbd   1b 5b 31 6d   MSS40_Msg   DB    esc,"[1mThe caked-on mud has become dry and fallen off of my arm.",esc,"[0m", 0
   4fc1   54 68 65 20   
   4fc5   63 61 6b 65   
   4fc9   64 2d 6f 6e   
   4fcd   20 6d 75 64   
   4fd1   20 68 61 73   
   4fd5   20 62 65 63   
   4fd9   6f 6d 65 20   
   4fdd   64 72 79 20   
   4fe1   61 6e 64 20   
   4fe5   66 61 6c 6c   
   4fe9   65 6e 20 6f   
   4fed   66 66 20 6f   
   4ff1   66 20 6d 79   
   4ff5   20 61 72 6d   
   4ff9   2e 1b 5b 30   
   4ffd   6d 00         
   4fff   1b 5b 31 6d   MSS41_Msg   DB    esc,"[1mAs I scream, the bear turns to look at me with a started expression on its",cr,lf,"face. As the bear twists, it loses its balance and falls off the ledge!",esc,"[0m", 0
   5003   41 73 20 49   
   5007   20 73 63 72   
   500b   65 61 6d 2c   
   500f   20 74 68 65   
   5013   20 62 65 61   
   5017   72 20 74 75   
   501b   72 6e 73 20   
   501f   74 6f 20 6c   
   5023   6f 6f 6b 20   
   5027   61 74 20 6d   
   502b   65 20 77 69   
   502f   74 68 20 61   
   5033   20 73 74 61   
   5037   72 74 65 64   
   503b   20 65 78 70   
   503f   72 65 73 73   
   5043   69 6f 6e 20   
   5047   6f 6e 20 69   
   504b   74 73 0d 0a   
   504f   66 61 63 65   
   5053   2e 20 41 73   
   5057   20 74 68 65   
   505b   20 62 65 61   
   505f   72 20 74 77   
   5063   69 73 74 73   
   5067   2c 20 69 74   
   506b   20 6c 6f 73   
   506f   65 73 20 69   
   5073   74 73 20 62   
   5077   61 6c 61 6e   
   507b   63 65 20 61   
   507f   6e 64 20 66   
   5083   61 6c 6c 73   
   5087   20 6f 66 66   
   508b   20 74 68 65   
   508f   20 6c 65 64   
   5093   67 65 21 1b   
   5097   5b 30 6d 00   
   509b   1b 5b 31 6d   MSS42_Msg   DB    esc,"[1mThe message fades after a few seconds. I don't understand what",cr,lf,"this means, but I hope you do!",esc,"[0m", 0
   509f   54 68 65 20   
   50a3   6d 65 73 73   
   50a7   61 67 65 20   
   50ab   66 61 64 65   
   50af   73 20 61 66   
   50b3   74 65 72 20   
   50b7   61 20 66 65   
   50bb   77 20 73 65   
   50bf   63 6f 6e 64   
   50c3   73 2e 20 49   
   50c7   20 64 6f 6e   
   50cb   27 74 20 75   
   50cf   6e 64 65 72   
   50d3   73 74 61 6e   
   50d7   64 20 77 68   
   50db   61 74 0d 0a   
   50df   74 68 69 73   
   50e3   20 6d 65 61   
   50e7   6e 73 2c 20   
   50eb   62 75 74 20   
   50ef   49 20 68 6f   
   50f3   70 65 20 79   
   50f7   6f 75 20 64   
   50fb   6f 21 1b 5b   
   50ff   30 6d 00      
   5102   1b 5b 31 6d   MSS43_Msg   DB    esc,"[1mThe bees swarm around the dragon, which wakes up to their incessant buzzing,",cr,lf,"and flies away...",esc,"[0m", 0
   5106   54 68 65 20   
   510a   62 65 65 73   
   510e   20 73 77 61   
   5112   72 6d 20 61   
   5116   72 6f 75 6e   
   511a   64 20 74 68   
   511e   65 20 64 72   
   5122   61 67 6f 6e   
   5126   2c 20 77 68   
   512a   69 63 68 20   
   512e   77 61 6b 65   
   5132   73 20 75 70   
   5136   20 74 6f 20   
   513a   74 68 65 69   
   513e   72 20 69 6e   
   5142   63 65 73 73   
   5146   61 6e 74 20   
   514a   62 75 7a 7a   
   514e   69 6e 67 2c   
   5152   0d 0a 61 6e   
   5156   64 20 66 6c   
   515a   69 65 73 20   
   515e   61 77 61 79   
   5162   2e 2e 2e 1b   
   5166   5b 30 6d 00   
   516a   1b 5b 31 6d   MSS44_Msg   DB    esc,"[1mThe magical oil has attracted a ",esc,"[33mmagical lamp",esc,"[37m, which appears in your hands. The",cr,lf,"lamp is now full of oil and burning with a blue flame.",esc,"[0m", 0
   516e   54 68 65 20   
   5172   6d 61 67 69   
   5176   63 61 6c 20   
   517a   6f 69 6c 20   
   517e   68 61 73 20   
   5182   61 74 74 72   
   5186   61 63 74 65   
   518a   64 20 61 20   
   518e   1b 5b 33 33   
   5192   6d 6d 61 67   
   5196   69 63 61 6c   
   519a   20 6c 61 6d   
   519e   70 1b 5b 33   
   51a2   37 6d 2c 20   
   51a6   77 68 69 63   
   51aa   68 20 61 70   
   51ae   70 65 61 72   
   51b2   73 20 69 6e   
   51b6   20 79 6f 75   
   51ba   72 20 68 61   
   51be   6e 64 73 2e   
   51c2   20 54 68 65   
   51c6   0d 0a 6c 61   
   51ca   6d 70 20 69   
   51ce   73 20 6e 6f   
   51d2   77 20 66 75   
   51d6   6c 6c 20 6f   
   51da   66 20 6f 69   
   51de   6c 20 61 6e   
   51e2   64 20 62 75   
   51e6   72 6e 69 6e   
   51ea   67 20 77 69   
   51ee   74 68 20 61   
   51f2   20 62 6c 75   
   51f6   65 20 66 6c   
   51fa   61 6d 65 2e   
   51fe   1b 5b 30 6d   
   5202   00            
   5203   1b 5b 31 3b   MSS45_Msg   DB    esc,"[1;31mArgh! I've been bitten by chiggers! I hate these things. This cannot be good.",esc,"[0m", 0
   5207   33 31 6d 41   
   520b   72 67 68 21   
   520f   20 49 27 76   
   5213   65 20 62 65   
   5217   65 6e 20 62   
   521b   69 74 74 65   
   521f   6e 20 62 79   
   5223   20 63 68 69   
   5227   67 67 65 72   
   522b   73 21 20 49   
   522f   20 68 61 74   
   5233   65 20 74 68   
   5237   65 73 65 20   
   523b   74 68 69 6e   
   523f   67 73 2e 20   
   5243   54 68 69 73   
   5247   20 63 61 6e   
   524b   6e 6f 74 20   
   524f   62 65 20 67   
   5253   6f 6f 64 2e   
   5257   1b 5b 30 6d   
   525b   00            
   525c   1b 5b 31 6d   MSS46_Msg   DB    esc,"[1mIt looks exactly like I'd expect it to look. Maybe I should go there?",esc,"[0m", 0
   5260   49 74 20 6c   
   5264   6f 6f 6b 73   
   5268   20 65 78 61   
   526c   63 74 6c 79   
   5270   20 6c 69 6b   
   5274   65 20 49 27   
   5278   64 20 65 78   
   527c   70 65 63 74   
   5280   20 69 74 20   
   5284   74 6f 20 6c   
   5288   6f 6f 6b 2e   
   528c   20 4d 61 79   
   5290   62 65 20 49   
   5294   20 73 68 6f   
   5298   75 6c 64 20   
   529c   67 6f 20 74   
   52a0   68 65 72 65   
   52a4   3f 1b 5b 30   
   52a8   6d 00         
   52aa   1b 5b 31 6d   MSS47_Msg   DB    esc,"[1mMaybe if I threw something?...",esc,"[0m", 0
   52ae   4d 61 79 62   
   52b2   65 20 69 66   
   52b6   20 49 20 74   
   52ba   68 72 65 77   
   52be   20 73 6f 6d   
   52c2   65 74 68 69   
   52c6   6e 67 3f 2e   
   52ca   2e 2e 1b 5b   
   52ce   30 6d 00      
   52d1   1b 5b 31 3b   MSS48_Msg   DB    esc,"[1;31mThis poor fish is dry with no water around, and has now died. That's a bummer.",esc,"[0m", 0
   52d5   33 31 6d 54   
   52d9   68 69 73 20   
   52dd   70 6f 6f 72   
   52e1   20 66 69 73   
   52e5   68 20 69 73   
   52e9   20 64 72 79   
   52ed   20 77 69 74   
   52f1   68 20 6e 6f   
   52f5   20 77 61 74   
   52f9   65 72 20 61   
   52fd   72 6f 75 6e   
   5301   64 2c 20 61   
   5305   6e 64 20 68   
   5309   61 73 20 6e   
   530d   6f 77 20 64   
   5311   69 65 64 2e   
   5315   20 54 68 61   
   5319   74 27 73 20   
   531d   61 20 62 75   
   5321   6d 6d 65 72   
   5325   2e 1b 5b 30   
   5329   6d 00         
   532b   1b 5b 31 6d   MSS49_Msg   DB    esc,"[1mA glowing genie appears, ",esc,"[33mdrops something shiny",esc,"[37m, and then vanishes.",esc,"[0m", 0
   532f   41 20 67 6c   
   5333   6f 77 69 6e   
   5337   67 20 67 65   
   533b   6e 69 65 20   
   533f   61 70 70 65   
   5343   61 72 73 2c   
   5347   20 1b 5b 33   
   534b   33 6d 64 72   
   534f   6f 70 73 20   
   5353   73 6f 6d 65   
   5357   74 68 69 6e   
   535b   67 20 73 68   
   535f   69 6e 79 1b   
   5363   5b 33 37 6d   
   5367   2c 20 61 6e   
   536b   64 20 74 68   
   536f   65 6e 20 76   
   5373   61 6e 69 73   
   5377   68 65 73 2e   
   537b   1b 5b 30 6d   
   537f   00            
   5380   1b 5b 31 6d   MSS50_Msg	DB	esc,"[1mA genie appears and says, ",34,esc,"[31mboy, you're selfish!",esc,"[37m",34," He takes something and then",cr,lf
   5384   41 20 67 65   
   5388   6e 69 65 20   
   538c   61 70 70 65   
   5390   61 72 73 20   
   5394   61 6e 64 20   
   5398   73 61 79 73   
   539c   2c 20 22 1b   
   53a0   5b 33 31 6d   
   53a4   62 6f 79 2c   
   53a8   20 79 6f 75   
   53ac   27 72 65 20   
   53b0   73 65 6c 66   
   53b4   69 73 68 21   
   53b8   1b 5b 33 37   
   53bc   6d 22 20 48   
   53c0   65 20 74 61   
   53c4   6b 65 73 20   
   53c8   73 6f 6d 65   
   53cc   74 68 69 6e   
   53d0   67 20 61 6e   
   53d4   64 20 74 68   
   53d8   65 6e 0d 0a   
   53dc   76 61 6e 69   		DB	"vanishes!",esc,"[0m", 0
   53e0   73 68 65 73   
   53e4   21 1b 5b 30   
   53e8   6d 00         
   53ea   1b 5b 31 6d   MSS51_Msg   DB    esc,"[1mNO!  It's too ",esc,"[31mhot",esc,"[0m", 0
   53ee   4e 4f 21 20   
   53f2   20 49 74 27   
   53f6   73 20 74 6f   
   53fa   6f 20 1b 5b   
   53fe   33 31 6d 68   
   5402   6f 74 1b 5b   
   5406   30 6d 00      
   5409   1b 5b 31 6d   MSS52_Msg   DB    esc,"[1mThere's no way for me to climb up to the ledges from down here.",esc,"[0m", 0
   540d   54 68 65 72   
   5411   65 27 73 20   
   5415   6e 6f 20 77   
   5419   61 79 20 66   
   541d   6f 72 20 6d   
   5421   65 20 74 6f   
   5425   20 63 6c 69   
   5429   6d 62 20 75   
   542d   70 20 74 6f   
   5431   20 74 68 65   
   5435   20 6c 65 64   
   5439   67 65 73 20   
   543d   66 72 6f 6d   
   5441   20 64 6f 77   
   5445   6e 20 68 65   
   5449   72 65 2e 1b   
   544d   5b 30 6d 00   
   5451   1b 5b 31 6d   MSS53_Msg   DB    esc,"[1mTry the swamp.",esc,"[0m", 0
   5455   54 72 79 20   
   5459   74 68 65 20   
   545d   73 77 61 6d   
   5461   70 2e 1b 5b   
   5465   30 6d 00      
   5468   1b 5b 31 6d   MSS54_Msg   DB    esc,"[1mDon't use the verb 'say'. Just give me one word.",esc,"[0m", 0
   546c   44 6f 6e 27   
   5470   74 20 75 73   
   5474   65 20 74 68   
   5478   65 20 76 65   
   547c   72 62 20 27   
   5480   73 61 79 27   
   5484   2e 20 4a 75   
   5488   73 74 20 67   
   548c   69 76 65 20   
   5490   6d 65 20 6f   
   5494   6e 65 20 77   
   5498   6f 72 64 2e   
   549c   1b 5b 30 6d   
   54a0   00            
   54a1   1b 5b 31 6d   MSS55_Msg   DB    esc,"[1mTry:  LOOK,JUMP,SWIM,CLIMB,THROW,FIND,GO,TAKE,INVENTORY,SCORE,HELP.",esc,"[0m", 0
   54a5   54 72 79 3a   
   54a9   20 20 4c 4f   
   54ad   4f 4b 2c 4a   
   54b1   55 4d 50 2c   
   54b5   53 57 49 4d   
   54b9   2c 43 4c 49   
   54bd   4d 42 2c 54   
   54c1   48 52 4f 57   
   54c5   2c 46 49 4e   
   54c9   44 2c 47 4f   
   54cd   2c 54 41 4b   
   54d1   45 2c 49 4e   
   54d5   56 45 4e 54   
   54d9   4f 52 59 2c   
   54dd   53 43 4f 52   
   54e1   45 2c 48 45   
   54e5   4c 50 2e 1b   
   54e9   5b 30 6d 00   
   54ed   1b 5b 31 6d   MSS56_Msg   DB    esc,"[1mOnly 3 things will wake the dragon. One of them is ",esc,"[31mdangerous",esc,"[37m!",esc,"[0m", 0
   54f1   4f 6e 6c 79   
   54f5   20 33 20 74   
   54f9   68 69 6e 67   
   54fd   73 20 77 69   
   5501   6c 6c 20 77   
   5505   61 6b 65 20   
   5509   74 68 65 20   
   550d   64 72 61 67   
   5511   6f 6e 2e 20   
   5515   4f 6e 65 20   
   5519   6f 66 20 74   
   551d   68 65 6d 20   
   5521   69 73 20 1b   
   5525   5b 33 31 6d   
   5529   64 61 6e 67   
   552d   65 72 6f 75   
   5531   73 1b 5b 33   
   5535   37 6d 21 1b   
   5539   5b 30 6d 00   
   553d   49 66 20 79   MSS57_Msg   DB    "If you need a hint on something, try '",esc,"[1mHELP",esc,"[0m'.", 0
   5541   6f 75 20 6e   
   5545   65 65 64 20   
   5549   61 20 68 69   
   554d   6e 74 20 6f   
   5551   6e 20 73 6f   
   5555   6d 65 74 68   
   5559   69 6e 67 2c   
   555d   20 74 72 79   
   5561   20 27 1b 5b   
   5565   31 6d 48 45   
   5569   4c 50 1b 5b   
   556d   30 6d 27 2e   
   5571   00            
   5572   1b 5b 31 6d   MSS58_Msg   DB    esc,"[1mRead the sign in the meadow!",esc,"[0m", 0
   5576   52 65 61 64   
   557a   20 74 68 65   
   557e   20 73 69 67   
   5582   6e 20 69 6e   
   5586   20 74 68 65   
   558a   20 6d 65 61   
   558e   64 6f 77 21   
   5592   1b 5b 30 6d   
   5596   00            
   5597   1b 5b 31 6d   MSS59_Msg   DB    esc,"[1mYou may need ",esc,"[35mmagic",esc,"[37m words here.",esc,"[0m", 0
   559b   59 6f 75 20   
   559f   6d 61 79 20   
   55a3   6e 65 65 64   
   55a7   20 1b 5b 33   
   55ab   35 6d 6d 61   
   55af   67 69 63 1b   
   55b3   5b 33 37 6d   
   55b7   20 77 6f 72   
   55bb   64 73 20 68   
   55bf   65 72 65 2e   
   55c3   1b 5b 30 6d   
   55c7   00            
   55c8   1b 5b 31 6d   MSS60_Msg   DB    esc,"[1mA loud, low voice rumbles from all around me, saying:",esc,"[0m", 0
   55cc   41 20 6c 6f   
   55d0   75 64 2c 20   
   55d4   6c 6f 77 20   
   55d8   76 6f 69 63   
   55dc   65 20 72 75   
   55e0   6d 62 6c 65   
   55e4   73 20 66 72   
   55e8   6f 6d 20 61   
   55ec   6c 6c 20 61   
   55f0   72 6f 75 6e   
   55f4   64 20 6d 65   
   55f8   2c 20 73 61   
   55fc   79 69 6e 67   
   5600   3a 1b 5b 30   
   5604   6d 00         
   5606   1b 5b 31 6d   MSS61_Msg   DB    esc,"[1mPLEASE LEAVE IT ALONE!",esc,"[0m", 0
   560a   50 4c 45 41   
   560e   53 45 20 4c   
   5612   45 41 56 45   
   5616   20 49 54 20   
   561a   41 4c 4f 4e   
   561e   45 21 1b 5b   
   5622   30 6d 00      
   5625   1b 5b 31 6d   MSS62_Msg   DB    esc,"[1mI don't think it's a good idea to throw that.",esc,"[0m", 0
   5629   49 20 64 6f   
   562d   6e 27 74 20   
   5631   74 68 69 6e   
   5635   6b 20 69 74   
   5639   27 73 20 61   
   563d   20 67 6f 6f   
   5641   64 20 69 64   
   5645   65 61 20 74   
   5649   6f 20 74 68   
   564d   72 6f 77 20   
   5651   74 68 61 74   
   5655   2e 1b 5b 30   
   5659   6d 00         
   565b   1b 5b 31 6d   MSS63_Msg   DB    esc,"[1mMedicine is good for bites.",esc,"[0m", 0
   565f   4d 65 64 69   
   5663   63 69 6e 65   
   5667   20 69 73 20   
   566b   67 6f 6f 64   
   566f   20 66 6f 72   
   5673   20 62 69 74   
   5677   65 73 2e 1b   
   567b   5b 30 6d 00   
   567f   1b 5b 31 6d   MSS64_Msg   DB    esc,"[1mSorry, but I can't find it anywhere around here.",esc,"[0m", 0
   5683   53 6f 72 72   
   5687   79 2c 20 62   
   568b   75 74 20 49   
   568f   20 63 61 6e   
   5693   27 74 20 66   
   5697   69 6e 64 20   
   569b   69 74 20 61   
   569f   6e 79 77 68   
   56a3   65 72 65 20   
   56a7   61 72 6f 75   
   56ab   6e 64 20 68   
   56af   65 72 65 2e   
   56b3   1b 5b 30 6d   
   56b7   00            
   56b8   54 72 65 61   MSS65_Msg   DB    "Treasures have a ",esc,"[1;33m*",esc,"[0m in their name.  Say '",esc,"[1mSCORE",esc,"[0m'", 0
   56bc   73 75 72 65   
   56c0   73 20 68 61   
   56c4   76 65 20 61   
   56c8   20 1b 5b 31   
   56cc   3b 33 33 6d   
   56d0   2a 1b 5b 30   
   56d4   6d 20 69 6e   
   56d8   20 74 68 65   
   56dc   69 72 20 6e   
   56e0   61 6d 65 2e   
   56e4   20 20 53 61   
   56e8   79 20 27 1b   
   56ec   5b 31 6d 53   
   56f0   43 4f 52 45   
   56f4   1b 5b 30 6d   
   56f8   27 00         
   56fa   1b 5b 31 6d   MSS66_Msg   DB    esc,"[1mBLOW IT UP",esc,"[0m", 0
   56fe   42 4c 4f 57   
   5702   20 49 54 20   
   5706   55 50 1b 5b   
   570a   30 6d 00      
   570d   1b 5b 31 6d   MSS67_Msg   DB    esc,"[1mThe ",esc,"[33mgolden fish",esc,"[37m wriggles out of your hands and slips back into the lake.",esc,"[0m", 0
   5711   54 68 65 20   
   5715   1b 5b 33 33   
   5719   6d 67 6f 6c   
   571d   64 65 6e 20   
   5721   66 69 73 68   
   5725   1b 5b 33 37   
   5729   6d 20 77 72   
   572d   69 67 67 6c   
   5731   65 73 20 6f   
   5735   75 74 20 6f   
   5739   66 20 79 6f   
   573d   75 72 20 68   
   5741   61 6e 64 73   
   5745   20 61 6e 64   
   5749   20 73 6c 69   
   574d   70 73 20 62   
   5751   61 63 6b 20   
   5755   69 6e 74 6f   
   5759   20 74 68 65   
   575d   20 6c 61 6b   
   5761   65 2e 1b 5b   
   5765   30 6d 00      
   5768   1b 5b 31 6d   MSS68_Msg   DB    esc,"[1mEwww. The smooth goo stinks to high heaven. But rubbing it into the chigger",cr,lf,"bites feels good.",esc,"[0m", 0
   576c   45 77 77 77   
   5770   2e 20 54 68   
   5774   65 20 73 6d   
   5778   6f 6f 74 68   
   577c   20 67 6f 6f   
   5780   20 73 74 69   
   5784   6e 6b 73 20   
   5788   74 6f 20 68   
   578c   69 67 68 20   
   5790   68 65 61 76   
   5794   65 6e 2e 20   
   5798   42 75 74 20   
   579c   72 75 62 62   
   57a0   69 6e 67 20   
   57a4   69 74 20 69   
   57a8   6e 74 6f 20   
   57ac   74 68 65 20   
   57b0   63 68 69 67   
   57b4   67 65 72 0d   
   57b8   0a 62 69 74   
   57bc   65 73 20 66   
   57c0   65 65 6c 73   
   57c4   20 67 6f 6f   
   57c8   64 2e 1b 5b   
   57cc   30 6d 00      
   57cf   1b 5b 31 6d   MSS69_Msg   DB    esc,"[1mIt tastes delicious! Yet I miss it now that it's gone. Maybe that wasn't such",cr,lf,"a good idea.",esc,"[0m", 0
   57d3   49 74 20 74   
   57d7   61 73 74 65   
   57db   73 20 64 65   
   57df   6c 69 63 69   
   57e3   6f 75 73 21   
   57e7   20 59 65 74   
   57eb   20 49 20 6d   
   57ef   69 73 73 20   
   57f3   69 74 20 6e   
   57f7   6f 77 20 74   
   57fb   68 61 74 20   
   57ff   69 74 27 73   
   5803   20 67 6f 6e   
   5807   65 2e 20 4d   
   580b   61 79 62 65   
   580f   20 74 68 61   
   5813   74 20 77 61   
   5817   73 6e 27 74   
   581b   20 73 75 63   
   581f   68 0d 0a 61   
   5823   20 67 6f 6f   
   5827   64 20 69 64   
   582b   65 61 2e 1b   
   582f   5b 30 6d 00   
   5833   1b 5b 31 6d   MSS70_Msg   DB    esc,"[1mArgh! These chigger bites itch like mad! Scratching them feels good for a few",cr,lf,"seconds, but then they get ",esc,"[31meven worse",esc,"[37m.",esc,"[0m", 0
   5837   41 72 67 68   
   583b   21 20 54 68   
   583f   65 73 65 20   
   5843   63 68 69 67   
   5847   67 65 72 20   
   584b   62 69 74 65   
   584f   73 20 69 74   
   5853   63 68 20 6c   
   5857   69 6b 65 20   
   585b   6d 61 64 21   
   585f   20 53 63 72   
   5863   61 74 63 68   
   5867   69 6e 67 20   
   586b   74 68 65 6d   
   586f   20 66 65 65   
   5873   6c 73 20 67   
   5877   6f 6f 64 20   
   587b   66 6f 72 20   
   587f   61 20 66 65   
   5883   77 0d 0a 73   
   5887   65 63 6f 6e   
   588b   64 73 2c 20   
   588f   62 75 74 20   
   5893   74 68 65 6e   
   5897   20 74 68 65   
   589b   79 20 67 65   
   589f   74 20 1b 5b   
   58a3   33 31 6d 65   
   58a7   76 65 6e 20   
   58ab   77 6f 72 73   
   58af   65 1b 5b 33   
   58b3   37 6d 2e 1b   
   58b7   5b 30 6d 00   
   58bb   1b 5b 31 6d   MSS71_Msg   DB    esc,"[1mThe lamp is already lit.",esc,"[0m", 0
   58bf   54 68 65 20   
   58c3   6c 61 6d 70   
   58c7   20 69 73 20   
   58cb   61 6c 72 65   
   58cf   61 64 79 20   
   58d3   6c 69 74 2e   
   58d7   1b 5b 30 6d   
   58db   00            
   58dc   1b 5b 31 6d   MSS72_Msg   DB    esc,"[1mThe thick persian rug unfurls itself and I hop on. Just by thinking the",cr,lf,"",esc,"[35mmagic",esc,"[37m word, it lifts me up and flies away...",esc,"[0m", 0
   58e0   54 68 65 20   
   58e4   74 68 69 63   
   58e8   6b 20 70 65   
   58ec   72 73 69 61   
   58f0   6e 20 72 75   
   58f4   67 20 75 6e   
   58f8   66 75 72 6c   
   58fc   73 20 69 74   
   5900   73 65 6c 66   
   5904   20 61 6e 64   
   5908   20 49 20 68   
   590c   6f 70 20 6f   
   5910   6e 2e 20 4a   
   5914   75 73 74 20   
   5918   62 79 20 74   
   591c   68 69 6e 6b   
   5920   69 6e 67 20   
   5924   74 68 65 0d   
   5928   0a 1b 5b 33   
   592c   35 6d 6d 61   
   5930   67 69 63 1b   
   5934   5b 33 37 6d   
   5938   20 77 6f 72   
   593c   64 2c 20 69   
   5940   74 20 6c 69   
   5944   66 74 73 20   
   5948   6d 65 20 75   
   594c   70 20 61 6e   
   5950   64 20 66 6c   
   5954   69 65 73 20   
   5958   61 77 61 79   
   595c   2e 2e 2e 1b   
   5960   5b 30 6d 00   
   5964   1b 5b 31 6d   MSS73_Msg   DB    esc,"[1mI swim out into the lake, but I'm carrying too much and ",esc,"[31mbegin sinking",esc,"[37m, so I",cr,lf,"swim back to shore.",esc,"[0m", 0
   5968   49 20 73 77   
   596c   69 6d 20 6f   
   5970   75 74 20 69   
   5974   6e 74 6f 20   
   5978   74 68 65 20   
   597c   6c 61 6b 65   
   5980   2c 20 62 75   
   5984   74 20 49 27   
   5988   6d 20 63 61   
   598c   72 72 79 69   
   5990   6e 67 20 74   
   5994   6f 6f 20 6d   
   5998   75 63 68 20   
   599c   61 6e 64 20   
   59a0   1b 5b 33 31   
   59a4   6d 62 65 67   
   59a8   69 6e 20 73   
   59ac   69 6e 6b 69   
   59b0   6e 67 1b 5b   
   59b4   33 37 6d 2c   
   59b8   20 73 6f 20   
   59bc   49 0d 0a 73   
   59c0   77 69 6d 20   
   59c4   62 61 63 6b   
   59c8   20 74 6f 20   
   59cc   73 68 6f 72   
   59d0   65 2e 1b 5b   
   59d4   30 6d 00      
   59d7   1b 5b 31 6d   MSS74_Msg   DB    esc,"[1mI'm not so sure that it's a good idea to attack the dragon.",esc,"[0m", 0
   59db   49 27 6d 20   
   59df   6e 6f 74 20   
   59e3   73 6f 20 73   
   59e7   75 72 65 20   
   59eb   74 68 61 74   
   59ef   20 69 74 27   
   59f3   73 20 61 20   
   59f7   67 6f 6f 64   
   59fb   20 69 64 65   
   59ff   61 20 74 6f   
   5a03   20 61 74 74   
   5a07   61 63 6b 20   
   5a0b   74 68 65 20   
   5a0f   64 72 61 67   
   5a13   6f 6e 2e 1b   
   5a17   5b 30 6d 00   
   5a1b   1b 5b 31 6d   MSS75_Msg   DB    esc,"[1mI'm not going in the ",esc,"[31mlava",esc,"[37m! You go in the ",esc,"[31mlava",esc,"[37m! That's way too hot.",esc,"[0m", 0
   5a1f   49 27 6d 20   
   5a23   6e 6f 74 20   
   5a27   67 6f 69 6e   
   5a2b   67 20 69 6e   
   5a2f   20 74 68 65   
   5a33   20 1b 5b 33   
   5a37   31 6d 6c 61   
   5a3b   76 61 1b 5b   
   5a3f   33 37 6d 21   
   5a43   20 59 6f 75   
   5a47   20 67 6f 20   
   5a4b   69 6e 20 74   
   5a4f   68 65 20 1b   
   5a53   5b 33 31 6d   
   5a57   6c 61 76 61   
   5a5b   1b 5b 33 37   
   5a5f   6d 21 20 54   
   5a63   68 61 74 27   
   5a67   73 20 77 61   
   5a6b   79 20 74 6f   
   5a6f   6f 20 68 6f   
   5a73   74 2e 1b 5b   
   5a77   30 6d 00      
   5a7a   1b 5b 31 6d   MSS76_Msg   DB    esc,"[1mI don't see any place to go swimming around here.",esc,"[0m", 0
   5a7e   49 20 64 6f   
   5a82   6e 27 74 20   
   5a86   73 65 65 20   
   5a8a   61 6e 79 20   
   5a8e   70 6c 61 63   
   5a92   65 20 74 6f   
   5a96   20 67 6f 20   
   5a9a   73 77 69 6d   
   5a9e   6d 69 6e 67   
   5aa2   20 61 72 6f   
   5aa6   75 6e 64 20   
   5aaa   68 65 72 65   
   5aae   2e 1b 5b 30   
   5ab2   6d 00         
   5ab4   1b 5b 31 6d   MSS77_Msg   DB    esc,"[1mI hold the empty bladder near the bubbling swamp and pull it open, sucking",cr,lf,"the gas into the bladder.",esc,"[0m", 0
   5ab8   49 20 68 6f   
   5abc   6c 64 20 74   
   5ac0   68 65 20 65   
   5ac4   6d 70 74 79   
   5ac8   20 62 6c 61   
   5acc   64 64 65 72   
   5ad0   20 6e 65 61   
   5ad4   72 20 74 68   
   5ad8   65 20 62 75   
   5adc   62 62 6c 69   
   5ae0   6e 67 20 73   
   5ae4   77 61 6d 70   
   5ae8   20 61 6e 64   
   5aec   20 70 75 6c   
   5af0   6c 20 69 74   
   5af4   20 6f 70 65   
   5af8   6e 2c 20 73   
   5afc   75 63 6b 69   
   5b00   6e 67 0d 0a   
   5b04   74 68 65 20   
   5b08   67 61 73 20   
   5b0c   69 6e 74 6f   
   5b10   20 74 68 65   
   5b14   20 62 6c 61   
   5b18   64 64 65 72   
   5b1c   2e 1b 5b 30   
   5b20   6d 00         
   5b22   1b 5b 31 6d   MSS78_Msg   DB    esc,"[1mI manage to coax a few of the bees into the empty bottle without getting stung!",esc,"[0m", 0
   5b26   49 20 6d 61   
   5b2a   6e 61 67 65   
   5b2e   20 74 6f 20   
   5b32   63 6f 61 78   
   5b36   20 61 20 66   
   5b3a   65 77 20 6f   
   5b3e   66 20 74 68   
   5b42   65 20 62 65   
   5b46   65 73 20 69   
   5b4a   6e 74 6f 20   
   5b4e   74 68 65 20   
   5b52   65 6d 70 74   
   5b56   79 20 62 6f   
   5b5a   74 74 6c 65   
   5b5e   20 77 69 74   
   5b62   68 6f 75 74   
   5b66   20 67 65 74   
   5b6a   74 69 6e 67   
   5b6e   20 73 74 75   
   5b72   6e 67 21 1b   
   5b76   5b 30 6d 00   
   5b7a   1b 5b 31 6d   MSS79_Msg   DB    esc,"[1mI heave the bricks towards the ",esc,"[31mlava",esc,"[37m, into which they fall, forming a makeshift",cr,lf,"dam, and stopping the ",esc,"[31mlava",esc,"[37m flow.", 0
   5b7e   49 20 68 65   
   5b82   61 76 65 20   
   5b86   74 68 65 20   
   5b8a   62 72 69 63   
   5b8e   6b 73 20 74   
   5b92   6f 77 61 72   
   5b96   64 73 20 74   
   5b9a   68 65 20 1b   
   5b9e   5b 33 31 6d   
   5ba2   6c 61 76 61   
   5ba6   1b 5b 33 37   
   5baa   6d 2c 20 69   
   5bae   6e 74 6f 20   
   5bb2   77 68 69 63   
   5bb6   68 20 74 68   
   5bba   65 79 20 66   
   5bbe   61 6c 6c 2c   
   5bc2   20 66 6f 72   
   5bc6   6d 69 6e 67   
   5bca   20 61 20 6d   
   5bce   61 6b 65 73   
   5bd2   68 69 66 74   
   5bd6   0d 0a 64 61   
   5bda   6d 2c 20 61   
   5bde   6e 64 20 73   
   5be2   74 6f 70 70   
   5be6   69 6e 67 20   
   5bea   74 68 65 20   
   5bee   1b 5b 33 31   
   5bf2   6d 6c 61 76   
   5bf6   61 1b 5b 33   
   5bfa   37 6d 20 66   
   5bfe   6c 6f 77 2e   
   5c02   00            
   5c03   1b 5b 31 6d   MSS80_Msg   DB    esc,"[1mOK, dropped.",esc,"[0m",cr,lf,"", 0
   5c07   4f 4b 2c 20   
   5c0b   64 72 6f 70   
   5c0f   70 65 64 2e   
   5c13   1b 5b 30 6d   
   5c17   0d 0a 00      
                        
                        ; String table IAS has length 61
   5c1a   5c 94 5c 96   Table_IAS   DW  IAS00_Msg, IAS01_Msg, IAS02_Msg, IAS03_Msg, IAS04_Msg, IAS05_Msg, IAS06_Msg, IAS07_Msg, IAS08_Msg, IAS09_Msg
   5c1e   5c a0 5c c0   
   5c22   5c df 5d 12   
   5c26   5d 1f 5d 25   
   5c2a   5d 3c 5d 5a   
   5c2e   5d 79 5d 97   	DW  IAS10_Msg, IAS11_Msg, IAS12_Msg, IAS13_Msg, IAS14_Msg, IAS15_Msg, IAS16_Msg, IAS17_Msg, IAS18_Msg, IAS19_Msg
   5c32   5d db 5d fb   
   5c36   5e 0d 5e 28   
   5c3a   5e 58 5e 66   
   5c3e   5e 91 5e 9b   
   5c42   5e b8 5e d1   	DW  IAS20_Msg, IAS21_Msg, IAS22_Msg, IAS23_Msg, IAS24_Msg, IAS25_Msg, IAS26_Msg, IASesc_Msg, IAS28_Msg, IAS29_Msg
   5c46   5e f3 5f 10   
   5c4a   5f 2e 5f 41   
   5c4e   5f 51 5f 78   
   5c52   5f 8e 5f a3   
   5c56   5f c7 60 16   	DW  IAS30_Msg, IAS31_Msg, IAS32_Msg, IAS33_Msg, IAS34_Msg, IAS35_Msg, IAS36_Msg, IAS37_Msg, IAS38_Msg, IAS39_Msg
   5c5a   60 3c 60 4e   
   5c5e   60 7c 60 94   
   5c62   60 f1 61 03   
   5c66   61 20 61 3c   
   5c6a   61 55 61 6d   	DW  IAS40_Msg, IAS41_Msg, IAS42_Msg, IAS43_Msg, IAS44_Msg, IAS45_Msg, IAS46_Msg, IAS47_Msg, IAS48_Msg, IAS49_Msg
   5c6e   61 84 61 9d   
   5c72   61 b4 61 db   
   5c76   62 2a 62 4a   
   5c7a   62 75 62 91   
   5c7e   62 b1 62 f5   	DW  IAS50_Msg, IAS51_Msg, IAS52_Msg, IAS53_Msg, IAS54_Msg, IAS55_Msg, IAS56_Msg, IAS57_Msg, IAS58_Msg, IAS59_Msg
   5c82   63 23 63 4d   
   5c86   63 67 63 7d   
   5c8a   63 93 63 ba   
   5c8e   63 cd 63 d3   
   5c92   63 d5         	DW  IAS60_Msg
   5c94   20 00         IAS00_Msg   DB    " ", 0
   5c96   44 61 72 6b   IAS01_Msg   DB    "Dark hole", 0
   5c9a   20 68 6f 6c   
   5c9e   65 00         
   5ca0   2a 1b 5b 31   IAS02_Msg   DB    "*",esc,"[1;31mPOT OF RUBIES",esc,"[0m*/RUB/", 0
   5ca4   3b 33 31 6d   
   5ca8   50 4f 54 20   
   5cac   4f 46 20 52   
   5cb0   55 42 49 45   
   5cb4   53 1b 5b 30   
   5cb8   6d 2a 2f 52   
   5cbc   55 42 2f 00   
   5cc0   53 70 69 64   IAS03_Msg   DB    "Spider web with writing on it.", 0
   5cc4   65 72 20 77   
   5cc8   65 62 20 77   
   5ccc   69 74 68 20   
   5cd0   77 72 69 74   
   5cd4   69 6e 67 20   
   5cd8   6f 6e 20 69   
   5cdc   74 2e 00      
   5cdf   48 6f 6c 6c   IAS04_Msg   DB    "Hollow ",esc,"[1mstump",esc,"[0m and remains of a felled tree.", 0
   5ce3   6f 77 20 1b   
   5ce7   5b 31 6d 73   
   5ceb   74 75 6d 70   
   5cef   1b 5b 30 6d   
   5cf3   20 61 6e 64   
   5cf7   20 72 65 6d   
   5cfb   61 69 6e 73   
   5cff   20 6f 66 20   
   5d03   61 20 66 65   
   5d07   6c 6c 65 64   
   5d0b   20 74 72 65   
   5d0f   65 2e 00      
   5d12   43 79 70 72   IAS05_Msg   DB    "Cypress tree", 0
   5d16   65 73 73 20   
   5d1a   74 72 65 65   
   5d1e   00            
   5d1f   57 61 74 65   IAS06_Msg   DB    "Water", 0
   5d23   72 00         
   5d25   45 76 69 6c   IAS07_Msg   DB    "Evil smelling mud/MUD/", 0
   5d29   20 73 6d 65   
   5d2d   6c 6c 69 6e   
   5d31   67 20 6d 75   
   5d35   64 2f 4d 55   
   5d39   44 2f 00      
   5d3c   2a 1b 5b 31   IAS08_Msg   DB    "*",esc,"[1;33mGOLDEN FISH",esc,"[0m*/FIS/", 0
   5d40   3b 33 33 6d   
   5d44   47 4f 4c 44   
   5d48   45 4e 20 46   
   5d4c   49 53 48 1b   
   5d50   5b 30 6d 2a   
   5d54   2f 46 49 53   
   5d58   2f 00         
   5d5a   42 72 61 73   IAS09_Msg   DB    "Brass lamp (",esc,"[33mlit",esc,"[0m)/LAM/", 0
   5d5e   73 20 6c 61   
   5d62   6d 70 20 28   
   5d66   1b 5b 33 33   
   5d6a   6d 6c 69 74   
   5d6e   1b 5b 30 6d   
   5d72   29 2f 4c 41   
   5d76   4d 2f 00      
   5d79   4f 6c 64 20   IAS10_Msg   DB    "Old fashioned brass lamp/LAM/", 0
   5d7d   66 61 73 68   
   5d81   69 6f 6e 65   
   5d85   64 20 62 72   
   5d89   61 73 73 20   
   5d8d   6c 61 6d 70   
   5d91   2f 4c 41 4d   
   5d95   2f 00         
   5d97   41 78 65 20   IAS11_Msg   DB    "Axe (rusty, with a ",esc,"[35mmagic",esc,"[37m word: ",esc,"[1mBUNYON",esc,"[0m on it)/AXE/", 0
   5d9b   28 72 75 73   
   5d9f   74 79 2c 20   
   5da3   77 69 74 68   
   5da7   20 61 20 1b   
   5dab   5b 33 35 6d   
   5daf   6d 61 67 69   
   5db3   63 1b 5b 33   
   5db7   37 6d 20 77   
   5dbb   6f 72 64 3a   
   5dbf   20 1b 5b 31   
   5dc3   6d 42 55 4e   
   5dc7   59 4f 4e 1b   
   5dcb   5b 30 6d 20   
   5dcf   6f 6e 20 69   
   5dd3   74 29 2f 41   
   5dd7   58 45 2f 00   
   5ddb   42 6f 74 74   IAS12_Msg   DB    "Bottle (filled with water)/BOT/", 0
   5ddf   6c 65 20 28   
   5de3   66 69 6c 6c   
   5de7   65 64 20 77   
   5deb   69 74 68 20   
   5def   77 61 74 65   
   5df3   72 29 2f 42   
   5df7   4f 54 2f 00   
   5dfb   45 6d 70 74   IAS13_Msg   DB    "Empty bottle/BOT/", 0
   5dff   79 20 62 6f   
   5e03   74 74 6c 65   
   5e07   2f 42 4f 54   
   5e0b   2f 00         
   5e0d   52 69 6e 67   IAS14_Msg   DB    "Ring of skeleton keys/KEY/", 0
   5e11   20 6f 66 20   
   5e15   73 6b 65 6c   
   5e19   65 74 6f 6e   
   5e1d   20 6b 65 79   
   5e21   73 2f 4b 45   
   5e25   59 2f 00      
   5e28   53 69 67 6e   IAS15_Msg   DB    "Sign: LEAVE TREASURE HERE (say '",esc,"[1mSCORE",esc,"[0m')", 0
   5e2c   3a 20 4c 45   
   5e30   41 56 45 20   
   5e34   54 52 45 41   
   5e38   53 55 52 45   
   5e3c   20 48 45 52   
   5e40   45 20 28 73   
   5e44   61 79 20 27   
   5e48   1b 5b 31 6d   
   5e4c   53 43 4f 52   
   5e50   45 1b 5b 30   
   5e54   6d 27 29 00   
   5e58   44 6f 6f 72   IAS16_Msg   DB    "Door (locked)", 0
   5e5c   20 28 6c 6f   
   5e60   63 6b 65 64   
   5e64   29 00         
   5e66   44 6f 6f 72   IAS17_Msg   DB    "Door (open, with a ",esc,"[1mhallway",esc,"[0m beyond)", 0
   5e6a   20 28 6f 70   
   5e6e   65 6e 2c 20   
   5e72   77 69 74 68   
   5e76   20 61 20 1b   
   5e7a   5b 31 6d 68   
   5e7e   61 6c 6c 77   
   5e82   61 79 1b 5b   
   5e86   30 6d 20 62   
   5e8a   65 79 6f 6e   
   5e8e   64 29 00      
   5e91   53 77 61 6d   IAS18_Msg   DB    "Swamp gas", 0
   5e95   70 20 67 61   
   5e99   73 00         
   5e9b   2a 1b 5b 31   IAS19_Msg   DB    "*",esc,"[1;33mGOLDEN NET",esc,"[0m*/NET/", 0
   5e9f   3b 33 33 6d   
   5ea3   47 4f 4c 44   
   5ea7   45 4e 20 4e   
   5eab   45 54 1b 5b   
   5eaf   30 6d 2a 2f   
   5eb3   4e 45 54 2f   
   5eb7   00            
   5eb8   1b 5b 31 3b   IAS20_Msg   DB    esc,"[1;31mChigger bites",esc,"[0m", 0
   5ebc   33 31 6d 43   
   5ec0   68 69 67 67   
   5ec4   65 72 20 62   
   5ec8   69 74 65 73   
   5ecc   1b 5b 30 6d   
   5ed0   00            
   5ed1   1b 5b 31 3b   IAS21_Msg   DB    esc,"[1;31mInfected chigger bites",esc,"[0m", 0
   5ed5   33 31 6d 49   
   5ed9   6e 66 65 63   
   5edd   74 65 64 20   
   5ee1   63 68 69 67   
   5ee5   67 65 72 20   
   5ee9   62 69 74 65   
   5eed   73 1b 5b 30   
   5ef1   6d 00         
   5ef3   46 6c 6f 61   IAS22_Msg   DB    "Floating patch of oily slime", 0
   5ef7   74 69 6e 67   
   5efb   20 70 61 74   
   5eff   63 68 20 6f   
   5f03   66 20 6f 69   
   5f07   6c 79 20 73   
   5f0b   6c 69 6d 65   
   5f0f   00            
   5f10   2a 1b 5b 31   IAS23_Msg   DB    "*",esc,"[1;33mROYAL HONEY",esc,"[0m*/HON/", 0
   5f14   3b 33 33 6d   
   5f18   52 4f 59 41   
   5f1c   4c 20 48 4f   
   5f20   4e 45 59 1b   
   5f24   5b 30 6d 2a   
   5f28   2f 48 4f 4e   
   5f2c   2f 00         
   5f2e   4c 61 72 67   IAS24_Msg   DB    "Large african bees", 0
   5f32   65 20 61 66   
   5f36   72 69 63 61   
   5f3a   6e 20 62 65   
   5f3e   65 73 00      
   5f41   54 68 69 6e   IAS25_Msg   DB    "Thin black bear", 0
   5f45   20 62 6c 61   
   5f49   63 6b 20 62   
   5f4d   65 61 72 00   
   5f51   42 6f 74 74   IAS26_Msg   DB    "Bottle (with bees buzzing inside)/BOT/", 0
   5f55   6c 65 20 28   
   5f59   77 69 74 68   
   5f5d   20 62 65 65   
   5f61   73 20 62 75   
   5f65   7a 7a 69 6e   
   5f69   67 20 69 6e   
   5f6d   73 69 64 65   
   5f71   29 2f 42 4f   
   5f75   54 2f 00      
   5f78   4c 61 72 67   IASesc_Msg   DB    "Large sleeping dragon", 0
   5f7c   65 20 73 6c   
   5f80   65 65 70 69   
   5f84   6e 67 20 64   
   5f88   72 61 67 6f   
   5f8c   6e 00         
   5f8e   46 6c 69 6e   IAS28_Msg   DB    "Flint and steel/FLI/", 0
   5f92   74 20 61 6e   
   5f96   64 20 73 74   
   5f9a   65 65 6c 2f   
   5f9e   46 4c 49 2f   
   5fa2   00            
   5fa3   2a 1b 5b 31   IAS29_Msg   DB    "*",esc,"[1;34mTHICK PERSIAN RUG",esc,"[0m*/RUG/", 0
   5fa7   3b 33 34 6d   
   5fab   54 48 49 43   
   5faf   4b 20 50 45   
   5fb3   52 53 49 41   
   5fb7   4e 20 52 55   
   5fbb   47 1b 5b 30   
   5fbf   6d 2a 2f 52   
   5fc3   55 47 2f 00   
   5fc7   53 69 67 6e   IAS30_Msg   DB    "Sign: ",esc,"[35mMAGIC",esc,"[37m WORD IS ",esc,"[1mAWAY",esc,"[0m. LOOK LA -(rest of sign is missing)", 0
   5fcb   3a 20 1b 5b   
   5fcf   33 35 6d 4d   
   5fd3   41 47 49 43   
   5fd7   1b 5b 33 37   
   5fdb   6d 20 57 4f   
   5fdf   52 44 20 49   
   5fe3   53 20 1b 5b   
   5fe7   31 6d 41 57   
   5feb   41 59 1b 5b   
   5fef   30 6d 2e 20   
   5ff3   4c 4f 4f 4b   
   5ff7   20 4c 41 20   
   5ffb   2d 28 72 65   
   5fff   73 74 20 6f   
   6003   66 20 73 69   
   6007   67 6e 20 69   
   600b   73 20 6d 69   
   600f   73 73 69 6e   
   6013   67 29 00      
   6016   42 6c 61 64   IAS31_Msg   DB    "Bladder (swollen with swamp gas)/BLA/", 0
   601a   64 65 72 20   
   601e   28 73 77 6f   
   6022   6c 6c 65 6e   
   6026   20 77 69 74   
   602a   68 20 73 77   
   602e   61 6d 70 20   
   6032   67 61 73 29   
   6036   2f 42 4c 41   
   603a   2f 00         
   603c   42 72 69 63   IAS32_Msg   DB    "Bricked up window", 0
   6040   6b 65 64 20   
   6044   75 70 20 77   
   6048   69 6e 64 6f   
   604c   77 00         
   604e   53 69 67 6e   IAS33_Msg   DB    "Sign: IN SOME CASES MUD IS GOOD, IN OTHERS...", 0
   6052   3a 20 49 4e   
   6056   20 53 4f 4d   
   605a   45 20 43 41   
   605e   53 45 53 20   
   6062   4d 55 44 20   
   6066   49 53 20 47   
   606a   4f 4f 44 2c   
   606e   20 49 4e 20   
   6072   4f 54 48 45   
   6076   52 53 2e 2e   
   607a   2e 00         
   607c   53 74 72 65   IAS34_Msg   DB    "Stream of ",esc,"[31mlava",esc,"[0m", 0
   6080   61 6d 20 6f   
   6084   66 20 1b 5b   
   6088   33 31 6d 6c   
   608c   61 76 61 1b   
   6090   5b 30 6d 00   
   6094   42 72 69 63   IAS35_Msg   DB    "Bricked up window with a hole blown out of the center,",cr,lf,"leading to a narrow ",esc,"[1;37mledge",esc,"[0m",0
   6098   6b 65 64 20   
   609c   75 70 20 77   
   60a0   69 6e 64 6f   
   60a4   77 20 77 69   
   60a8   74 68 20 61   
   60ac   20 68 6f 6c   
   60b0   65 20 62 6c   
   60b4   6f 77 6e 20   
   60b8   6f 75 74 20   
   60bc   6f 66 20 74   
   60c0   68 65 20 63   
   60c4   65 6e 74 65   
   60c8   72 2c 0d 0a   
   60cc   6c 65 61 64   
   60d0   69 6e 67 20   
   60d4   74 6f 20 61   
   60d8   20 6e 61 72   
   60dc   72 6f 77 20   
   60e0   1b 5b 31 3b   
   60e4   33 37 6d 6c   
   60e8   65 64 67 65   
   60ec   1b 5b 30 6d   
   60f0   00            
   60f1   4c 6f 6f 73   IAS36_Msg   DB    "Loose fire bricks", 0
   60f5   65 20 66 69   
   60f9   72 65 20 62   
   60fd   72 69 63 6b   
   6101   73 00         
   6103   2a 1b 5b 31   IAS37_Msg   DB    "*",esc,"[1;33mGOLD CROWN",esc,"[0m*/CRO/", 0
   6107   3b 33 33 6d   
   610b   47 4f 4c 44   
   610f   20 43 52 4f   
   6113   57 4e 1b 5b   
   6117   30 6d 2a 2f   
   611b   43 52 4f 2f   
   611f   00            
   6120   2a 1b 5b 31   IAS38_Msg   DB    "*",esc,"[1mMAGIC MIRROR",esc,"[0m*/MIR/", 0
   6124   6d 4d 41 47   
   6128   49 43 20 4d   
   612c   49 52 52 4f   
   6130   52 1b 5b 30   
   6134   6d 2a 2f 4d   
   6138   49 52 2f 00   
   613c   54 68 69 6e   IAS39_Msg   DB    "Thin black bear (asleep)", 0
   6140   20 62 6c 61   
   6144   63 6b 20 62   
   6148   65 61 72 20   
   614c   28 61 73 6c   
   6150   65 65 70 29   
   6154   00            
   6155   45 6d 70 74   IAS40_Msg   DB    "Empty wine bladder/BLA/", 0
   6159   79 20 77 69   
   615d   6e 65 20 62   
   6161   6c 61 64 64   
   6165   65 72 2f 42   
   6169   4c 41 2f 00   
   616d   53 68 61 72   IAS41_Msg   DB    "Shards of broken glass", 0
   6171   64 73 20 6f   
   6175   66 20 62 72   
   6179   6f 6b 65 6e   
   617d   20 67 6c 61   
   6181   73 73 00      
   6184   1b 5b 31 3b   IAS42_Msg   DB    esc,"[1;31mChiggers",esc,"[0m/CHI/", 0
   6188   33 31 6d 43   
   618c   68 69 67 67   
   6190   65 72 73 1b   
   6194   5b 30 6d 2f   
   6198   43 48 49 2f   
   619c   00            
   619d   54 68 69 6e   IAS43_Msg   DB    "Thin black bear (dead)", 0
   61a1   20 62 6c 61   
   61a5   63 6b 20 62   
   61a9   65 61 72 20   
   61ad   28 64 65 61   
   61b1   64 29 00      
   61b4   2a 1b 5b 31   IAS44_Msg   DB    "*",esc,"[1mDRAGON EGGS",esc,"[0m* (very rare)/EGG/", 0
   61b8   6d 44 52 41   
   61bc   47 4f 4e 20   
   61c0   45 47 47 53   
   61c4   1b 5b 30 6d   
   61c8   2a 20 28 76   
   61cc   65 72 79 20   
   61d0   72 61 72 65   
   61d4   29 2f 45 47   
   61d8   47 2f 00      
   61db   4d 61 6b 65   IAS45_Msg   DB    "Makeshift dam, consisting of a pile of bricks, holding back the ",esc,"[31mlava",esc,"[0m.", 0
   61df   73 68 69 66   
   61e3   74 20 64 61   
   61e7   6d 2c 20 63   
   61eb   6f 6e 73 69   
   61ef   73 74 69 6e   
   61f3   67 20 6f 66   
   61f7   20 61 20 70   
   61fb   69 6c 65 20   
   61ff   6f 66 20 62   
   6203   72 69 63 6b   
   6207   73 2c 20 68   
   620b   6f 6c 64 69   
   620f   6e 67 20 62   
   6213   61 63 6b 20   
   6217   74 68 65 20   
   621b   1b 5b 33 31   
   621f   6d 6c 61 76   
   6223   61 1b 5b 30   
   6227   6d 2e 00      
   622a   2a 1b 5b 31   IAS46_Msg   DB    "*",esc,"[1;32mJEWELED FRUIT",esc,"[0m*/FRU/", 0
   622e   3b 33 32 6d   
   6232   4a 45 57 45   
   6236   4c 45 44 20   
   623a   46 52 55 49   
   623e   54 1b 5b 30   
   6242   6d 2a 2f 46   
   6246   52 55 2f 00   
   624a   2a 1b 5b 31   IAS47_Msg   DB    "*",esc,"[1;34mSMALL STATUE OF A BLUE OX",esc,"[0m*/OX/", 0
   624e   3b 33 34 6d   
   6252   53 4d 41 4c   
   6256   4c 20 53 54   
   625a   41 54 55 45   
   625e   20 4f 46 20   
   6262   41 20 42 4c   
   6266   55 45 20 4f   
   626a   58 1b 5b 30   
   626e   6d 2a 2f 4f   
   6272   58 2f 00      
   6275   2a 1b 5b 31   IAS48_Msg   DB    "*",esc,"[1mDIAMOND RING",esc,"[0m*/RIN/", 0
   6279   6d 44 49 41   
   627d   4d 4f 4e 44   
   6281   20 52 49 4e   
   6285   47 1b 5b 30   
   6289   6d 2a 2f 52   
   628d   49 4e 2f 00   
   6291   2a 1b 5b 31   IAS49_Msg   DB    "*",esc,"[1mDIAMOND BRACELET",esc,"[0m*/BRA/", 0
   6295   6d 44 49 41   
   6299   4d 4f 4e 44   
   629d   20 42 52 41   
   62a1   43 45 4c 45   
   62a5   54 1b 5b 30   
   62a9   6d 2a 2f 42   
   62ad   52 41 2f 00   
   62b1   45 6c 61 62   IAS50_Msg   DB    "Elaborate carvings on rock which form the message: ALADDIN WAS HERE", 0
   62b5   6f 72 61 74   
   62b9   65 20 63 61   
   62bd   72 76 69 6e   
   62c1   67 73 20 6f   
   62c5   6e 20 72 6f   
   62c9   63 6b 20 77   
   62cd   68 69 63 68   
   62d1   20 66 6f 72   
   62d5   6d 20 74 68   
   62d9   65 20 6d 65   
   62dd   73 73 61 67   
   62e1   65 3a 20 41   
   62e5   4c 41 44 44   
   62e9   49 4e 20 57   
   62ed   41 53 20 48   
   62f1   45 52 45 00   
   62f5   53 69 67 6e   IAS51_Msg   DB    "Sign: LIMBO.  FIND RIGHT EXIT AND LIVE AGAIN!", 0
   62f9   3a 20 4c 49   
   62fd   4d 42 4f 2e   
   6301   20 20 46 49   
   6305   4e 44 20 52   
   6309   49 47 48 54   
   630d   20 45 58 49   
   6311   54 20 41 4e   
   6315   44 20 4c 49   
   6319   56 45 20 41   
   631d   47 41 49 4e   
   6321   21 00         
   6323   53 6d 6f 6b   IAS52_Msg   DB    "Smoking hole.  Pieces of dragon and gore.", 0
   6327   69 6e 67 20   
   632b   68 6f 6c 65   
   632f   2e 20 20 50   
   6333   69 65 63 65   
   6337   73 20 6f 66   
   633b   20 64 72 61   
   633f   67 6f 6e 20   
   6343   61 6e 64 20   
   6347   67 6f 72 65   
   634b   2e 00         
   634d   53 69 67 6e   IAS53_Msg   DB    "Sign: NO SWIMMING ALLOWED", 0
   6351   3a 20 4e 4f   
   6355   20 53 57 49   
   6359   4d 4d 49 4e   
   635d   47 20 41 4c   
   6361   4c 4f 57 45   
   6365   44 00         
   6367   41 72 72 6f   IAS54_Msg   DB    "Arrow (pointing down)", 0
   636b   77 20 28 70   
   636f   6f 69 6e 74   
   6373   69 6e 67 20   
   6377   64 6f 77 6e   
   637b   29 00         
   637d   44 65 61 64   IAS55_Msg   DB    "Dead golden fish/FIS/", 0
   6381   20 67 6f 6c   
   6385   64 65 6e 20   
   6389   66 69 73 68   
   638d   2f 46 49 53   
   6391   2f 00         
   6393   2a 1b 5b 31   IAS56_Msg   DB    "*",esc,"[1;31mFIRESTONE",esc,"[0m* (cold now)/FIR/", 0
   6397   3b 33 31 6d   
   639b   46 49 52 45   
   639f   53 54 4f 4e   
   63a3   45 1b 5b 30   
   63a7   6d 2a 20 28   
   63ab   63 6f 6c 64   
   63af   20 6e 6f 77   
   63b3   29 2f 46 49   
   63b7   52 2f 00      
   63ba   53 69 67 6e   IAS57_Msg   DB    "Sign: PAUL'S PLACE", 0
   63be   3a 20 50 41   
   63c2   55 4c 27 53   
   63c6   20 50 4c 41   
   63ca   43 45 00      
   63cd   54 72 65 65   IAS58_Msg   DB    "Trees", 0
   63d1   73 00         
   63d3   20 00         IAS59_Msg   DB    " ", 0
   63d5   20 00         IAS60_Msg   DB    " ", 0
                        
                        
                        ; Array I2 has length 61
   63d7   00 04 04 02   Array_I2    DB   0,  4,  4,  2,  0,  1, 10,  1, 10,  0
   63db   00 01 0a 01   
   63df   0a 00         
   63e1   03 0a 03 00   	DB   3, 10,  3,  0,  2,  3,  5,  0,  1, 18
   63e5   02 03 05 00   
   63e9   01 12         
   63eb   00 00 01 08   	DB   0,  0,  1,  8,  8, 21,  0, 23, 13, 17
   63ef   08 15 00 17   
   63f3   0d 11         
   63f5   12 00 14 17   	DB  18,  0, 20, 23, 18,  0,  0, 22, 21,  0
   63f9   12 00 00 16   
   63fd   15 00         
   63ff   09 00 01 00   	DB   9,  0,  1,  0,  0,  0, 25, 26,  0,  0
   6403   00 00 19 1a   
   6407   00 00         
   6409   0e 21 00 0a   	DB  14, 33,  0, 10, 17,  0,  0, 25, 11,  0
   640d   11 00 00 19   
   6411   0b 00         
   6413   00            	DB   0
                        ;
   6414   1b 5b 23 33   splash:	db	esc,'[#39;7m',esc,'[H',esc,'[J'
   6418   39 3b 37 6d   
   641c   1b 5b 48 1b   
   6420   5b 4a         
   6422   1b 5b 30 3b   	db	01bh,05bh,030h,03bh,031h,03bh,034h,034h,06dh,0dbh,0dfh,0dbh
   6426   31 3b 34 34   
   642a   6d db df db   
   642e   20 20 20 dc   	db	020h,020h,020h,0dch,020h,020h,020h,020h,020h,020h,020h,020h,020h,020h,020h,020h
   6432   20 20 20 20   
   6436   20 20 20 20   
   643a   20 20 20 20   
   643e   dc 20 20 20   	db	0dch,020h,020h,020h,020h,020h,020h,020h,020h,020h,020h,020h,020h,0dbh,020h,020h
   6442   20 20 20 20   
   6446   20 20 20 20   
   644a   20 db 20 20   
   644e   20 20 20 20   	db	020h,020h,020h,020h,020h,020h,020h,020h,020h,0dch,020h,046h,069h,06eh,064h,020h
   6452   20 20 20 20   
   6456   20 dc 20 46   
   645a   69 6e 64 20   
   645e   74 72 65 61   	db	074h,072h,065h,061h,073h,075h,072h,065h,073h,02ch,020h,061h,06eh,064h,020h,073h
   6462   73 75 72 65   
   6466   73 2c 20 61   
   646a   6e 64 20 73   
   646e   61 76 65 20   	db	061h,076h,065h,020h,074h,068h,065h,06dh,020h,069h,06eh,020h,00dh,00ah,0dbh,0dch
   6472   74 68 65 6d   
   6476   20 69 6e 20   
   647a   0d 0a db dc   
   647e   db 20 dc dc   	db	0dbh,020h,0dch,0dch,0dbh,020h,0dbh,020h,0dbh,020h,0dbh,0dfh,020h,0dbh,0dfh,0dch
   6482   db 20 db 20   
   6486   db 20 db df   
   648a   20 db df dc   
   648e   20 db dc 20   	db	020h,0dbh,0dch,020h,0dbh,020h,0dbh,020h,0dbh,0dfh,020h,0dbh,0dfh,020h,0dbh,020h
   6492   db 20 db 20   
   6496   db df 20 db   
   649a   df 20 db 20   
   649e   db df db 20   	db	0dbh,0dfh,0dbh,020h,0dbh,0dfh,0dch,020h,0dch,0dch,0dbh,020h,074h,068h,065h,020h
   64a2   db df dc 20   
   64a6   dc dc db 20   
   64aa   74 68 65 20   
   64ae   70 72 6f 70   	db	070h,072h,06fh,070h,065h,072h,020h,070h,06ch,061h,063h,065h,020h,074h,06fh,020h
   64b2   65 72 20 70   
   64b6   6c 61 63 65   
   64ba   20 74 6f 20   
   64be   73 63 6f 72   	db	073h,063h,06fh,072h,065h,020h,070h,06fh,069h,06eh,074h,073h,02eh,00dh,00ah,0dbh
   64c2   65 20 70 6f   
   64c6   69 6e 74 73   
   64ca   2e 0d 0a db   
   64ce   20 db 20 db   	db	020h,0dbh,020h,0dbh,020h,0dbh,020h,0dfh,0dch,0dfh,020h,0dbh,0dfh,020h,0dbh,020h
   64d2   20 db 20 df   
   64d6   dc df 20 db   
   64da   df 20 db 20   
   64de   db 20 db 20   	db	0dbh,020h,0dbh,020h,020h,0dbh,020h,0dbh,020h,0dbh,020h,020h,0dbh,0dfh,020h,0dbh
   64e2   20 db 20 db   
   64e6   20 db 20 20   
   64ea   db df 20 db   
   64ee   20 db df db   	db	020h,0dbh,0dfh,0dbh,020h,0dbh,020h,0dbh,020h,0dbh,020h,0dbh,020h,054h,079h,070h
   64f2   20 db 20 db   
   64f6   20 db 20 db   
   64fa   20 54 79 70   
   64fe   65 20 63 6f   	db	065h,020h,063h,06fh,06dh,06dh,061h,06eh,064h,073h,020h,06ch,069h,06bh,065h,020h
   6502   6d 6d 61 6e   
   6506   64 73 20 6c   
   650a   69 6b 65 20   
   650e   45 41 53 54   	db	045h,041h,053h,054h,02ch,020h,047h,045h,054h,020h,041h,058h,045h,02ch,00dh,00ah
   6512   2c 20 47 45   
   6516   54 20 41 58   
   651a   45 2c 0d 0a   
   651e   df 20 df 20   	db	0dfh,020h,0dfh,020h,0dfh,0dfh,0dfh,020h,020h,0dfh,020h,020h,0dfh,0dfh,020h,0dfh
   6522   df df df 20   
   6526   20 df 20 20   
   652a   df df 20 df   
   652e   20 df 20 df   	db	020h,0dfh,020h,0dfh,0dfh,020h,0dfh,0dfh,0dfh,020h,0dfh,020h,020h,0dfh,0dfh,020h
   6532   df 20 df df   
   6536   df 20 df 20   
   653a   20 df df 20   
   653e   df 20 df 20   	db	0dfh,020h,0dfh,020h,0dfh,020h,0dfh,020h,0dfh,020h,0dfh,0dfh,0dfh,020h,049h,04eh
   6542   df 20 df 20   
   6546   df 20 df df   
   654a   df 20 49 4e   
   654e   56 45 4e 54   	db	056h,045h,04eh,054h,04fh,052h,059h,02ch,020h,04ch,04fh,04fh,04bh,02ch,020h,053h
   6552   4f 52 59 2c   
   6556   20 4c 4f 4f   
   655a   4b 2c 20 53   
   655e   41 56 45 20   	db	041h,056h,045h,020h,047h,041h,04dh,045h,02ch,020h,051h,055h,049h,054h,02eh,00dh
   6562   47 41 4d 45   
   6566   2c 20 51 55   
   656a   49 54 2e 0d   
   656e   0a 1b 5b 30   	db	00ah,01bh,05bh,030h,03bh,033h,030h,03bh,034h,033h,06dh,07ch,07ch,07ch,07ch,07ch
   6572   3b 33 30 3b   
   6576   34 33 6d 7c   
   657a   7c 7c 7c 7c   
   657e   7c 7c 1b 5b   	db	07ch,07ch,01bh,05bh,034h,034h,06dh,020h,020h,020h,01bh,05bh,034h,033h,06dh,05ch
   6582   34 34 6d 20   
   6586   20 20 1b 5b   
   658a   34 33 6d 5c   
   658e   1b 5b 33 33   	db	01bh,05bh,033h,033h,03bh,034h,034h,06dh,0dch,020h,020h,020h,0dch,01bh,05bh,033h
   6592   3b 34 34 6d   
   6596   dc 20 20 20   
   659a   dc 1b 5b 33   
   659e   30 3b 34 33   	db	030h,03bh,034h,033h,06dh,02fh,01bh,05bh,034h,034h,06dh,020h,020h,01bh,05bh,034h
   65a2   6d 2f 1b 5b   
   65a6   34 34 6d 20   
   65aa   20 1b 5b 34   
   65ae   33 6d 7c 1b   	db	033h,06dh,07ch,01bh,05bh,034h,034h,06dh,020h,020h,020h,020h,020h,01bh,05bh,031h
   65b2   5b 34 34 6d   
   65b6   20 20 20 20   
   65ba   20 1b 5b 31   
   65be   3b 33 33 6d   	db	03bh,033h,033h,06dh,0dch,0dch,0dch,0dch,01bh,05bh,030h,03bh,033h,030h,03bh,034h
   65c2   dc dc dc dc   
   65c6   1b 5b 30 3b   
   65ca   33 30 3b 34   
   65ce   33 6d 2f 2f   	db	033h,06dh,02fh,02fh,01bh,05bh,033h,033h,03bh,034h,034h,06dh,0dfh,020h,020h,020h
   65d2   1b 5b 33 33   
   65d6   3b 34 34 6d   
   65da   df 20 20 20   
   65de   20 20 20 20   	db	020h,020h,020h,020h,020h,020h,020h,020h,020h,020h,020h,020h,020h,020h,020h,020h
   65e2   20 20 20 20   
   65e6   20 20 20 20   
   65ea   20 20 20 20   
   65ee   20 20 20 20   	db	020h,020h,020h,020h,020h,01bh,05bh,033h,037h,06dh,0dfh,0dfh,01bh,05bh,031h,03bh
   65f2   20 1b 5b 33   
   65f6   37 6d df df   
   65fa   1b 5b 31 3b   
   65fe   34 37 6d 2d   	db	034h,037h,06dh,02dh,05ch,05fh,05ch,05fh,05ch,05ch,020h,07ch,020h,07ch,020h,02fh
   6602   5c 5f 5c 5f   
   6606   5c 5c 20 7c   
   660a   20 7c 20 2f   
   660e   20 2f 20 2f   	db	020h,02fh,020h,02fh,02dh,01bh,05bh,030h,03bh,034h,034h,06dh,0dfh,0dfh,020h,00dh
   6612   2d 1b 5b 30   
   6616   3b 34 34 6d   
   661a   df df 20 0d   
   661e   0a 1b 5b 33   	db	00ah,01bh,05bh,033h,030h,03bh,034h,033h,06dh,07ch,07ch,07ch,07ch,07ch,07ch,07ch
   6622   30 3b 34 33   
   6626   6d 7c 7c 7c   
   662a   7c 7c 7c 7c   
   662e   1b 5b 34 34   	db	01bh,05bh,034h,034h,06dh,020h,020h,020h,020h,01bh,05bh,033h,033h,06dh,0dfh,01bh
   6632   6d 20 20 20   
   6636   20 1b 5b 33   
   663a   33 6d df 1b   
   663e   5b 33 30 3b   	db	05bh,033h,030h,03bh,034h,033h,06dh,05ch,01bh,05bh,033h,033h,03bh,034h,034h,06dh
   6642   34 33 6d 5c   
   6646   1b 5b 33 33   
   664a   3b 34 34 6d   
   664e   dc 1b 5b 33   	db	0dch,01bh,05bh,033h,030h,03bh,034h,033h,06dh,02fh,02fh,01bh,05bh,034h,034h,06dh
   6652   30 3b 34 33   
   6656   6d 2f 2f 1b   
   665a   5b 34 34 6d   
   665e   20 20 20 1b   	db	020h,020h,020h,01bh,05bh,034h,033h,06dh,05ch,05ch,01bh,05bh,034h,034h,06dh,020h
   6662   5b 34 33 6d   
   6666   5c 5c 1b 5b   
   666a   34 34 6d 20   
   666e   20 1b 5b 31   	db	020h,01bh,05bh,031h,03bh,033h,033h,06dh,0dch,0dbh,0dbh,0dbh,01bh,05bh,034h,033h
   6672   3b 33 33 6d   
   6676   dc db db db   
   667a   1b 5b 34 33   
   667e   6d df 1b 5b   	db	06dh,0dfh,01bh,05bh,030h,03bh,033h,030h,03bh,034h,033h,06dh,02fh,02fh,01bh,05bh
   6682   30 3b 33 30   
   6686   3b 34 33 6d   
   668a   2f 2f 1b 5b   
   668e   31 3b 33 33   	db	031h,03bh,033h,033h,03bh,034h,034h,06dh,0dbh,0dch,020h,020h,01bh,05bh,030h,03bh
   6692   3b 34 34 6d   
   6696   db dc 20 20   
   669a   1b 5b 30 3b   
   669e   34 34 6d 2a   	db	034h,034h,06dh,02ah,020h,053h,06fh,06dh,065h,020h,069h,074h,065h,06dh,073h,020h
   66a2   20 53 6f 6d   
   66a6   65 20 69 74   
   66aa   65 6d 73 20   
   66ae   64 6f 20 6d   	db	064h,06fh,020h,06dh,061h,067h,069h,063h,061h,06ch,020h,020h,020h,0dfh,01bh,05bh
   66b2   61 67 69 63   
   66b6   61 6c 20 20   
   66ba   20 df 1b 5b   
   66be   31 3b 34 37   	db	031h,03bh,034h,037h,06dh,05ch,05ch,05fh,05ch,07ch,07ch,07ch,07ch,02fh,05fh,02fh
   66c2   6d 5c 5c 5f   
   66c6   5c 7c 7c 7c   
   66ca   7c 2f 5f 2f   
   66ce   1b 5b 30 3b   	db	01bh,05bh,030h,03bh,034h,034h,06dh,0dfh,020h,020h,020h,020h,020h,020h,00dh,00ah
   66d2   34 34 6d df   
   66d6   20 20 20 20   
   66da   20 20 0d 0a   
   66de   1b 5b 33 30   	db	01bh,05bh,033h,030h,03bh,034h,033h,06dh,07ch,07ch,07ch,07ch,07ch,07ch,07ch,01bh
   66e2   3b 34 33 6d   
   66e6   7c 7c 7c 7c   
   66ea   7c 7c 7c 1b   
   66ee   5b 34 34 6d   	db	05bh,034h,034h,06dh,020h,020h,020h,020h,01bh,05bh,033h,033h,06dh,0dch,01bh,05bh
   66f2   20 20 20 20   
   66f6   1b 5b 33 33   
   66fa   6d dc 1b 5b   
   66fe   33 30 3b 34   	db	033h,030h,03bh,034h,033h,06dh,02fh,02fh,01bh,05bh,033h,033h,03bh,034h,034h,06dh
   6702   33 6d 2f 2f   
   6706   1b 5b 33 33   
   670a   3b 34 34 6d   
   670e   df 20 20 20   	db	0dfh,020h,020h,020h,020h,020h,01bh,05bh,033h,030h,03bh,034h,033h,06dh,05ch,05ch
   6712   20 20 1b 5b   
   6716   33 30 3b 34   
   671a   33 6d 5c 5c   
   671e   1b 5b 31 3b   	db	01bh,05bh,031h,03bh,033h,033h,03bh,034h,034h,06dh,0deh,0dbh,01bh,05bh,034h,033h
   6722   33 33 3b 34   
   6726   34 6d de db   
   672a   1b 5b 34 33   
   672e   6d df 1b 5b   	db	06dh,0dfh,01bh,05bh,030h,03bh,033h,030h,03bh,034h,033h,06dh,02fh,02fh,02fh,01bh
   6732   30 3b 33 30   
   6736   3b 34 33 6d   
   673a   2f 2f 2f 1b   
   673e   5b 31 3b 33   	db	05bh,031h,03bh,033h,033h,06dh,0dch,01bh,05bh,034h,034h,06dh,0dbh,0dbh,0dbh,0dbh
   6742   33 6d dc 1b   
   6746   5b 34 34 6d   
   674a   db db db db   
   674e   20 20 20 1b   	db	020h,020h,020h,01bh,05bh,030h,03bh,034h,034h,06dh,074h,068h,069h,06eh,067h,073h
   6752   5b 30 3b 34   
   6756   34 6d 74 68   
   675a   69 6e 67 73   
   675e   2e 20 46 69   	db	02eh,020h,046h,069h,067h,075h,072h,069h,06eh,067h,020h,06fh,075h,074h,020h,020h
   6762   67 75 72 69   
   6766   6e 67 20 6f   
   676a   75 74 20 20   
   676e   20 20 20 20   	db	020h,020h,020h,020h,020h,0dfh,01bh,05bh,031h,03bh,034h,037h,06dh,05ch,05ch,07ch
   6772   20 df 1b 5b   
   6776   31 3b 34 37   
   677a   6d 5c 5c 7c   
   677e   7c 2f 2f 1b   	db	07ch,02fh,02fh,01bh,05bh,030h,03bh,034h,034h,06dh,0dfh,020h,020h,020h,020h,020h
   6782   5b 30 3b 34   
   6786   34 6d df 20   
   678a   20 20 20 20   
   678e   20 20 20 0d   	db	020h,020h,020h,00dh,00ah,01bh,05bh,033h,030h,03bh,034h,033h,06dh,07ch,07ch,07ch
   6792   0a 1b 5b 33   
   6796   30 3b 34 33   
   679a   6d 7c 7c 7c   
   679e   7c 7c 7c 7c   	db	07ch,07ch,07ch,07ch,02fh,02fh,02fh,02fh,02fh,01bh,05bh,033h,033h,03bh,034h,034h
   67a2   2f 2f 2f 2f   
   67a6   2f 1b 5b 33   
   67aa   33 3b 34 34   
   67ae   6d df 20 20   	db	06dh,0dfh,020h,020h,020h,020h,020h,020h,01bh,05bh,033h,030h,03bh,034h,033h,06dh
   67b2   20 20 20 20   
   67b6   1b 5b 33 30   
   67ba   3b 34 33 6d   
   67be   5c 5c 5c 2f   	db	05ch,05ch,05ch,02fh,02fh,02fh,01bh,05bh,031h,03bh,033h,033h,06dh,0dch,0dbh,01bh
   67c2   2f 2f 1b 5b   
   67c6   31 3b 33 33   
   67ca   6d dc db 1b   
   67ce   5b 34 34 6d   	db	05bh,034h,034h,06dh,0dbh,0dbh,0dbh,0dbh,0dbh,0dbh,020h,020h,020h,01bh,05bh,030h
   67d2   db db db db   
   67d6   db db 20 20   
   67da   20 1b 5b 30   
   67de   3b 34 34 6d   	db	03bh,034h,034h,06dh,057h,048h,041h,054h,020h,069h,073h,020h,070h,061h,072h,074h
   67e2   57 48 41 54   
   67e6   20 69 73 20   
   67ea   70 61 72 74   
   67ee   20 6f 66 20   	db	020h,06fh,066h,020h,074h,068h,065h,020h,066h,075h,06eh,021h,020h,020h,020h,020h
   67f2   74 68 65 20   
   67f6   66 75 6e 21   
   67fa   20 20 20 20   
   67fe   20 1b 5b 31   	db	020h,01bh,05bh,031h,03bh,034h,037h,06dh,07ch,07ch,07ch,07ch,01bh,05bh,034h,034h
   6802   3b 34 37 6d   
   6806   7c 7c 7c 7c   
   680a   1b 5b 34 34   
   680e   6d 20 20 20   	db	06dh,020h,020h,020h,020h,020h,020h,020h,020h,020h,020h,00dh,00ah,01bh,05bh,030h
   6812   20 20 20 20   
   6816   20 20 20 0d   
   681a   0a 1b 5b 30   
   681e   3b 33 30 3b   	db	03bh,033h,030h,03bh,034h,033h,06dh,07ch,07ch,07ch,07ch,07ch,07ch,07ch,01bh,05bh
   6822   34 33 6d 7c   
   6826   7c 7c 7c 7c   
   682a   7c 7c 1b 5b   
   682e   31 3b 33 37   	db	031h,03bh,033h,037h,03bh,034h,034h,06dh,05ch,020h,07ch,020h,02fh,020h,020h,020h
   6832   3b 34 34 6d   
   6836   5c 20 7c 20   
   683a   2f 20 20 20   
   683e   20 20 1b 5b   	db	020h,020h,01bh,05bh,030h,03bh,033h,033h,03bh,034h,034h,06dh,0dch,01bh,05bh,033h
   6842   30 3b 33 33   
   6846   3b 34 34 6d   
   684a   dc 1b 5b 33   
   684e   30 3b 34 33   	db	030h,03bh,034h,033h,06dh,02fh,02fh,02fh,01bh,05bh,033h,033h,03bh,034h,034h,06dh
   6852   6d 2f 2f 2f   
   6856   1b 5b 33 33   
   685a   3b 34 34 6d   
   685e   df 20 1b 5b   	db	0dfh,020h,01bh,05bh,031h,06dh,0dfh,0dbh,0dbh,0dbh,0dbh,0dbh,0dbh,0dbh,0dfh,020h
   6862   31 6d df db   
   6866   db db db db   
   686a   db db df 20   
   686e   20 20 20 20   	db	020h,020h,020h,020h,020h,020h,020h,020h,020h,020h,020h,020h,020h,020h,020h,020h
   6872   20 20 20 20   
   6876   20 20 20 20   
   687a   20 20 20 20   
   687e   20 20 20 20   	db	020h,020h,020h,020h,020h,020h,020h,020h,020h,020h,020h,020h,020h,020h,01bh,05bh
   6882   20 20 20 20   
   6886   20 20 20 20   
   688a   20 20 1b 5b   
   688e   30 3b 33 34   	db	030h,03bh,033h,034h,03bh,034h,033h,06dh,0dfh,02fh,07ch,07ch,07ch,05ch,05ch,0dfh
   6892   3b 34 33 6d   
   6896   df 2f 7c 7c   
   689a   7c 5c 5c df   
   689e   db db db db   	db	0dbh,0dbh,0dbh,0dbh,0dbh,0dbh,0dbh,0dbh,00dh,00ah,01bh,05bh,033h,030h,06dh,07ch
   68a2   db db db db   
   68a6   0d 0a 1b 5b   
   68aa   33 30 6d 7c   
   68ae   7c 7c 7c 7c   	db	07ch,07ch,07ch,07ch,07ch,07ch,01bh,05bh,034h,034h,06dh,020h,01bh,05bh,031h,03bh
   68b2   7c 7c 1b 5b   
   68b6   34 34 6d 20   
   68ba   1b 5b 31 3b   
   68be   33 37 6d 5c   	db	033h,037h,06dh,05ch,07ch,02fh,020h,020h,020h,020h,01bh,05bh,030h,03bh,033h,033h
   68c2   7c 2f 20 20   
   68c6   20 20 1b 5b   
   68ca   30 3b 33 33   
   68ce   3b 34 34 6d   	db	03bh,034h,034h,06dh,0dch,01bh,05bh,033h,030h,03bh,034h,033h,06dh,02fh,02fh,02fh
   68d2   dc 1b 5b 33   
   68d6   30 3b 34 33   
   68da   6d 2f 2f 2f   
   68de   1b 5b 33 33   	db	01bh,05bh,033h,033h,03bh,034h,034h,06dh,0dfh,020h,020h,020h,020h,020h,01bh,05bh
   68e2   3b 34 34 6d   
   68e6   df 20 20 20   
   68ea   20 20 1b 5b   
   68ee   31 6d df df   	db	031h,06dh,0dfh,0dfh,0dfh,0dfh,0dfh,020h,020h,020h,020h,020h,020h,020h,020h,020h
   68f2   df df df 20   
   68f6   20 20 20 20   
   68fa   20 20 20 20   
   68fe   20 20 20 20   	db	020h,020h,020h,020h,020h,020h,020h,020h,020h,020h,020h,020h,020h,020h,020h,020h
   6902   20 20 20 20   
   6906   20 20 20 20   
   690a   20 20 20 20   
   690e   20 20 20 20   	db	020h,020h,020h,020h,020h,020h,01bh,05bh,030h,03bh,033h,034h,03bh,034h,033h,06dh
   6912   20 20 1b 5b   
   6916   30 3b 33 34   
   691a   3b 34 33 6d   
   691e   df 2f 20 2f   	db	0dfh,02fh,020h,02fh,020h,07ch,07ch,020h,05ch,020h,05ch,0dfh,0dbh,0dbh,0dbh,0dbh
   6922   20 7c 7c 20   
   6926   5c 20 5c df   
   692a   db db db db   
   692e   db db 0d 0a   	db	0dbh,0dbh,00dh,00ah,01bh,05bh,033h,030h,06dh,07ch,07ch,07ch,07ch,07ch,07ch,07ch
   6932   1b 5b 33 30   
   6936   6d 7c 7c 7c   
   693a   7c 7c 7c 7c   
   693e   1b 5b 31 3b   	db	01bh,05bh,031h,03bh,033h,037h,03bh,034h,034h,06dh,02dh,02dh,058h,02dh,02dh,02dh
   6942   33 37 3b 34   
   6946   34 6d 2d 2d   
   694a   58 2d 2d 2d   
   694e   1b 5b 30 3b   	db	01bh,05bh,030h,03bh,033h,030h,03bh,034h,033h,06dh,02fh,02fh,02fh,02fh,01bh,05bh
   6952   33 30 3b 34   
   6956   33 6d 2f 2f   
   695a   2f 2f 1b 5b   
   695e   33 33 3b 34   	db	033h,033h,03bh,034h,034h,06dh,0dfh,020h,020h,020h,020h,020h,020h,020h,020h,020h
   6962   34 6d df 20   
   6966   20 20 20 20   
   696a   20 20 20 20   
   696e   20 20 1b 5b   	db	020h,020h,01bh,05bh,033h,032h,06dh,0dch,0dch,0b2h,0b2h,0b2h,0dch,0b2h,0b2h,0b2h
   6972   33 32 6d dc   
   6976   dc b2 b2 b2   
   697a   dc b2 b2 b2   
   697e   dc b2 b2 b2   	db	0dch,0b2h,0b2h,0b2h,0b2h,0b2h,0dch,020h,020h,020h,020h,020h,020h,020h,020h,020h
   6982   b2 b2 dc 20   
   6986   20 20 20 20   
   698a   20 20 20 20   
   698e   20 20 20 1b   	db	020h,020h,020h,01bh,05bh,033h,034h,03bh,034h,033h,06dh,0dbh,0dfh,0dfh,02fh,020h
   6992   5b 33 34 3b   
   6996   34 33 6d db   
   699a   df df 2f 20   
   699e   2f 20 2f 20   	db	02fh,020h,02fh,020h,07ch,020h,07ch,020h,05ch,020h,05ch,020h,0dfh,0dfh,0dbh,0dbh
   69a2   7c 20 7c 20   
   69a6   5c 20 5c 20   
   69aa   df df db db   
   69ae   db 0d 0a 1b   	db	0dbh,00dh,00ah,01bh,05bh,033h,030h,06dh,07ch,07ch,07ch,07ch,07ch,07ch,07ch,01bh
   69b2   5b 33 30 6d   
   69b6   7c 7c 7c 7c   
   69ba   7c 7c 7c 1b   
   69be   5b 34 34 6d   	db	05bh,034h,034h,06dh,020h,01bh,05bh,031h,03bh,033h,037h,06dh,02fh,07ch,05ch,020h
   69c2   20 1b 5b 31   
   69c6   3b 33 37 6d   
   69ca   2f 7c 5c 20   
   69ce   1b 5b 30 3b   	db	01bh,05bh,030h,03bh,033h,030h,03bh,034h,033h,06dh,02fh,02fh,02fh,02fh,01bh,05bh
   69d2   33 30 3b 34   
   69d6   33 6d 2f 2f   
   69da   2f 2f 1b 5b   
   69de   34 34 6d 20   	db	034h,034h,06dh,020h,020h,020h,01bh,05bh,033h,032h,06dh,0dch,0b2h,0b2h,0b2h,0b2h
   69e2   20 20 1b 5b   
   69e6   33 32 6d dc   
   69ea   b2 b2 b2 b2   
   69ee   dc dc b2 b2   	db	0dch,0dch,0b2h,0b2h,0b2h,0b2h,0b2h,0b2h,0b2h,0b2h,0b2h,0b2h,0b2h,0b2h,0b2h,0b2h
   69f2   b2 b2 b2 b2   
   69f6   b2 b2 b2 b2   
   69fa   b2 b2 b2 b2   
   69fe   b2 b2 b2 b2   	db	0b2h,0b2h,0b2h,0b2h,0b2h,0b2h,0dbh,0dch,0dch,020h,020h,0dch,0dch,0dch,0dch,0dbh
   6a02   b2 b2 db dc   
   6a06   dc 20 20 dc   
   6a0a   dc dc dc db   
   6a0e   db db db db   	db	0dbh,0dbh,0dbh,0dbh,0dbh,0dbh,0dbh,0dbh,0dbh,0dbh,01bh,05bh,033h,030h,03bh,034h
   6a12   db db db db   
   6a16   db db 1b 5b   
   6a1a   33 30 3b 34   
   6a1e   32 6d dc dc   	db	032h,06dh,0dch,0dch,0dch,0dch,0dch,01bh,05bh,033h,032h,03bh,034h,034h,06dh,0dbh
   6a22   dc dc dc 1b   
   6a26   5b 33 32 3b   
   6a2a   34 34 6d db   
   6a2e   db db db db   	db	0dbh,0dbh,0dbh,0dbh,0dbh,0dbh,0dch,00dh,00ah,01bh,05bh,033h,030h,03bh,034h,033h
   6a32   db db dc 0d   
   6a36   0a 1b 5b 33   
   6a3a   30 3b 34 33   
   6a3e   6d 7c 7c 7c   	db	06dh,07ch,07ch,07ch,07ch,07ch,07ch,07ch,01bh,05bh,031h,03bh,033h,037h,03bh,034h
   6a42   7c 7c 7c 7c   
   6a46   1b 5b 31 3b   
   6a4a   33 37 3b 34   
   6a4e   34 6d 2f 20   	db	034h,06dh,02fh,020h,07ch,020h,01bh,05bh,030h,03bh,033h,030h,03bh,034h,033h,06dh
   6a52   7c 20 1b 5b   
   6a56   30 3b 33 30   
   6a5a   3b 34 33 6d   
   6a5e   2f 2f 2f 2f   	db	02fh,02fh,02fh,02fh,01bh,05bh,034h,034h,06dh,020h,020h,020h,01bh,05bh,033h,032h
   6a62   1b 5b 34 34   
   6a66   6d 20 20 20   
   6a6a   1b 5b 33 32   
   6a6e   6d dc b2 b2   	db	06dh,0dch,0b2h,0b2h,0b2h,0b2h,0b2h,0b2h,0b2h,0b2h,0b2h,0b2h,0b2h,0b2h,0b2h,0b2h
   6a72   b2 b2 b2 b2   
   6a76   b2 b2 b2 b2   
   6a7a   b2 b2 b2 b2   
   6a7e   b2 b2 b2 b2   	db	0b2h,0b2h,0b2h,0b2h,0b2h,0b2h,0b2h,0b2h,0b2h,0b2h,0b2h,0b2h,0b2h,0b2h,01bh,05bh
   6a82   b2 b2 b2 b2   
   6a86   b2 b2 b2 b2   
   6a8a   b2 b2 1b 5b   
   6a8e   34 36 6d db   	db	034h,036h,06dh,0dbh,020h,020h,020h,0dbh,0dbh,0dbh,0dbh,01bh,05bh,033h,030h,03bh
   6a92   20 20 20 db   
   6a96   db db db 1b   
   6a9a   5b 33 30 3b   
   6a9e   34 32 6d dc   	db	034h,032h,06dh,0dch,01bh,05bh,031h,03bh,033h,032h,03bh,034h,030h,06dh,0dch,0dch
   6aa2   1b 5b 31 3b   
   6aa6   33 32 3b 34   
   6aaa   30 6d dc dc   
   6aae   1b 5b 30 3b   	db	01bh,05bh,030h,03bh,033h,030h,03bh,034h,032h,06dh,0dch,020h,020h,020h,0dch,01bh
   6ab2   33 30 3b 34   
   6ab6   32 6d dc 20   
   6aba   20 20 dc 1b   
   6abe   5b 31 3b 33   	db	05bh,031h,03bh,033h,032h,03bh,034h,030h,06dh,0dch,0dch,020h,01bh,05bh,034h,032h
   6ac2   32 3b 34 30   
   6ac6   6d dc dc 20   
   6aca   1b 5b 34 32   
   6ace   6d db db db   	db	06dh,0dbh,0dbh,0dbh,0dbh,0dbh,01bh,05bh,034h,030h,06dh,0dch,01bh,05bh,030h,03bh
   6ad2   db db 1b 5b   
   6ad6   34 30 6d dc   
   6ada   1b 5b 30 3b   
   6ade   33 30 3b 34   	db	033h,030h,03bh,034h,032h,06dh,0dch,0dch,020h,020h,020h,020h,020h,00dh,00ah,01bh
   6ae2   32 6d dc dc   
   6ae6   20 20 20 20   
   6aea   20 0d 0a 1b   
   6aee   5b 34 33 6d   	db	05bh,034h,033h,06dh,07ch,07ch,07ch,07ch,07ch,07ch,07ch,05ch,02fh,02fh,02fh,02fh
   6af2   7c 7c 7c 7c   
   6af6   7c 7c 7c 5c   
   6afa   2f 2f 2f 2f   
   6afe   2f 2f 1b 5b   	db	02fh,02fh,01bh,05bh,034h,032h,06dh,020h,020h,020h,020h,020h,01bh,05bh,033h,032h
   6b02   34 32 6d 20   
   6b06   20 20 20 20   
   6b0a   1b 5b 33 32   
   6b0e   3b 34 34 6d   	db	03bh,034h,034h,06dh,0b2h,0b2h,0b2h,0b2h,0b2h,0b2h,0b2h,0b2h,0b2h,0b2h,0b2h,0b2h
   6b12   b2 b2 b2 b2   
   6b16   b2 b2 b2 b2   
   6b1a   b2 b2 b2 b2   
   6b1e   1b 5b 33 30   	db	01bh,05bh,033h,030h,03bh,034h,032h,06dh,0deh,0deh,0feh,0deh,0feh,0deh,0feh,0deh
   6b22   3b 34 32 6d   
   6b26   de de fe de   
   6b2a   fe de fe de   
   6b2e   de de 20 de   	db	0deh,0deh,020h,0deh,020h,0ddh,0feh,01bh,05bh,033h,032h,03bh,034h,036h,06dh,0dbh
   6b32   20 dd fe 1b   
   6b36   5b 33 32 3b   
   6b3a   34 36 6d db   
   6b3e   20 20 20 db   	db	020h,020h,020h,0dbh,0dbh,0dbh,0dbh,0dbh,01bh,05bh,031h,03bh,034h,030h,06dh,0deh
   6b42   db db db db   
   6b46   1b 5b 31 3b   
   6b4a   34 30 6d de   
   6b4e   db db db dc   	db	0dbh,0dbh,0dbh,0dch,0dch,0dch,0dbh,0dbh,0dbh,0dbh,0deh,01bh,05bh,034h,032h,06dh
   6b52   dc dc db db   
   6b56   db db de 1b   
   6b5a   5b 34 32 6d   
   6b5e   db db 1b 5b   	db	0dbh,0dbh,01bh,05bh,034h,030h,06dh,0dbh,01bh,05bh,034h,032h,06dh,0dbh,01bh,05bh
   6b62   34 30 6d db   
   6b66   1b 5b 34 32   
   6b6a   6d db 1b 5b   
   6b6e   34 30 6d db   	db	034h,030h,06dh,0dbh,01bh,05bh,034h,032h,06dh,0dbh,01bh,05bh,034h,030h,06dh,0dbh
   6b72   1b 5b 34 32   
   6b76   6d db 1b 5b   
   6b7a   34 30 6d db   
   6b7e   dc 1b 5b 30   	db	0dch,01bh,05bh,030h,03bh,033h,030h,03bh,034h,032h,06dh,0dch,020h,020h,020h,00dh
   6b82   3b 33 30 3b   
   6b86   34 32 6d dc   
   6b8a   20 20 20 0d   
   6b8e   0a 1b 5b 34   	db	00ah,01bh,05bh,034h,033h,06dh,07ch,07ch,07ch,07ch,07ch,07ch,07ch,07ch,02fh,02fh
   6b92   33 6d 7c 7c   
   6b96   7c 7c 7c 7c   
   6b9a   7c 7c 2f 2f   
   6b9e   2f 2f 2f 1b   	db	02fh,02fh,02fh,01bh,05bh,031h,03bh,033h,033h,03bh,034h,032h,06dh,020h,020h,03ch
   6ba2   5b 31 3b 33   
   6ba6   33 3b 34 32   
   6baa   6d 20 20 3c   
   6bae   3e 3c 20 20   	db	03eh,03ch,020h,020h,01bh,05bh,030h,03bh,033h,030h,03bh,034h,032h,06dh,0ddh,0deh
   6bb2   1b 5b 30 3b   
   6bb6   33 30 3b 34   
   6bba   32 6d dd de   
   6bbe   de de fe de   	db	0deh,0deh,0feh,0deh,0deh,0feh,0deh,0deh,020h,01bh,05bh,033h,032h,03bh,034h,036h
   6bc2   de fe de de   
   6bc6   20 1b 5b 33   
   6bca   32 3b 34 36   
   6bce   6d db df df   	db	06dh,0dbh,0dfh,0dfh,0dfh,0dfh,0dfh,0dfh,0dfh,0dfh,0dfh,0dfh,0dfh,0dfh,0dfh,0dfh
   6bd2   df df df df   
   6bd6   df df df df   
   6bda   df df df df   
   6bde   20 20 20 db   	db	020h,020h,020h,0dbh,0dbh,0dbh,0dbh,0dbh,0dbh,01bh,05bh,033h,030h,03bh,034h,032h
   6be2   db db db db   
   6be6   db 1b 5b 33   
   6bea   30 3b 34 32   
   6bee   6d df 1b 5b   	db	06dh,0dfh,01bh,05bh,031h,03bh,033h,032h,03bh,034h,030h,06dh,0dfh,0dbh,0dbh,0dbh
   6bf2   31 3b 33 32   
   6bf6   3b 34 30 6d   
   6bfa   df db db db   
   6bfe   db db db db   	db	0dbh,0dbh,0dbh,0dbh,0dbh,0dch,0dfh,01bh,05bh,030h,03bh,033h,030h,03bh,034h,032h
   6c02   db dc df 1b   
   6c06   5b 30 3b 33   
   6c0a   30 3b 34 32   
   6c0e   6d df df 1b   	db	06dh,0dfh,0dfh,01bh,05bh,031h,03bh,033h,032h,03bh,034h,030h,06dh,0dfh,01bh,05bh
   6c12   5b 31 3b 33   
   6c16   32 3b 34 30   
   6c1a   6d df 1b 5b   
   6c1e   33 33 6d dc   	db	033h,033h,06dh,0dch,01bh,05bh,033h,032h,06dh,0deh,01bh,05bh,034h,032h,06dh,0dbh
   6c22   1b 5b 33 32   
   6c26   6d de 1b 5b   
   6c2a   34 32 6d db   
   6c2e   db db 1b 5b   	db	0dbh,0dbh,01bh,05bh,034h,030h,06dh,0dbh,01bh,05bh,030h,03bh,033h,030h,03bh,034h
   6c32   34 30 6d db   
   6c36   1b 5b 30 3b   
   6c3a   33 30 3b 34   
   6c3e   32 6d dd 20   	db	032h,06dh,0ddh,020h,020h,00dh,00ah,01bh,05bh,034h,033h,06dh,07ch,07ch,07ch,07ch
   6c42   20 0d 0a 1b   
   6c46   5b 34 33 6d   
   6c4a   7c 7c 7c 7c   
   6c4e   7c 7c 7c 7c   	db	07ch,07ch,07ch,07ch,02fh,02fh,02fh,01bh,05bh,033h,032h,03bh,034h,036h,06dh,0dbh
   6c52   2f 2f 2f 1b   
   6c56   5b 33 32 3b   
   6c5a   34 36 6d db   
   6c5e   db df 3b 3b   	db	0dbh,0dfh,03bh,03bh,03bh,03bh,027h,0dfh,0dfh,0dfh,0dfh,0dfh,0dfh,0dfh,0dfh,0dfh
   6c62   3b 3b 27 df   
   6c66   df df df df   
   6c6a   df df df df   
   6c6e   df df df 20   	db	0dfh,0dfh,0dfh,020h,020h,020h,020h,020h,020h,020h,020h,020h,020h,020h,020h,020h
   6c72   20 20 20 20   
   6c76   20 20 20 20   
   6c7a   20 20 20 20   
   6c7e   20 20 20 dc   	db	020h,020h,020h,0dch,0dbh,0dbh,0dbh,0dbh,0dbh,0dbh,0dbh,0dbh,01bh,05bh,033h,030h
   6c82   db db db db   
   6c86   db db db db   
   6c8a   1b 5b 33 30   
   6c8e   3b 34 32 6d   	db	03bh,034h,032h,06dh,0deh,01bh,05bh,031h,03bh,033h,032h,03bh,034h,030h,06dh,0dbh
   6c92   de 1b 5b 31   
   6c96   3b 33 32 3b   
   6c9a   34 30 6d db   
   6c9e   1b 5b 33 37   	db	01bh,05bh,033h,037h,03bh,034h,031h,06dh,0dfh,01bh,05bh,034h,032h,06dh,0ddh,01bh
   6ca2   3b 34 31 6d   
   6ca6   df 1b 5b 34   
   6caa   32 6d dd 1b   
   6cae   5b 33 32 3b   	db	05bh,033h,032h,03bh,034h,030h,06dh,0dbh,01bh,05bh,033h,037h,03bh,034h,031h,06dh
   6cb2   34 30 6d db   
   6cb6   1b 5b 33 37   
   6cba   3b 34 31 6d   
   6cbe   df 1b 5b 34   	db	0dfh,01bh,05bh,034h,032h,06dh,0ddh,01bh,05bh,033h,032h,03bh,034h,030h,06dh,0dbh
   6cc2   32 6d dd 1b   
   6cc6   5b 33 32 3b   
   6cca   34 30 6d db   
   6cce   db 1b 5b 30   	db	0dbh,01bh,05bh,030h,03bh,033h,030h,03bh,034h,032h,06dh,0ddh,020h,020h,020h,01bh
   6cd2   3b 33 30 3b   
   6cd6   34 32 6d dd   
   6cda   20 20 20 1b   
   6cde   5b 31 3b 33   	db	05bh,031h,03bh,033h,033h,03bh,034h,030h,06dh,0deh,0dbh,0ddh,01bh,05bh,033h,032h
   6ce2   33 3b 34 30   
   6ce6   6d de db dd   
   6cea   1b 5b 33 32   
   6cee   6d db 1b 5b   	db	06dh,0dbh,01bh,05bh,034h,032h,06dh,0dbh,0dbh,0dbh,01bh,05bh,034h,030h,06dh,0ddh
   6cf2   34 32 6d db   
   6cf6   db db 1b 5b   
   6cfa   34 30 6d dd   
   6cfe   1b 5b 34 32   	db	01bh,05bh,034h,032h,06dh,020h,020h,00dh,00ah,01bh,05bh,030h,03bh,033h,030h,03bh
   6d02   6d 20 20 0d   
   6d06   0a 1b 5b 30   
   6d0a   3b 33 30 3b   
   6d0e   34 33 6d 7c   	db	034h,033h,06dh,07ch,07ch,07ch,07ch,07ch,07ch,07ch,07ch,01bh,05bh,033h,032h,03bh
   6d12   7c 7c 7c 7c   
   6d16   7c 7c 7c 1b   
   6d1a   5b 33 32 3b   
   6d1e   34 36 6d db   	db	034h,036h,06dh,0dbh,0dbh,0dbh,0dbh,0dbh,03bh,03bh,03bh,03bh,03bh,020h,020h,020h
   6d22   db db db db   
   6d26   3b 3b 3b 3b   
   6d2a   3b 20 20 20   
   6d2e   20 20 20 20   	db	020h,020h,020h,020h,020h,020h,020h,020h,020h,020h,020h,020h,020h,020h,020h,020h
   6d32   20 20 20 20   
   6d36   20 20 20 20   
   6d3a   20 20 20 20   
   6d3e   20 20 20 20   	db	020h,020h,020h,020h,020h,020h,020h,020h,0dch,0dbh,0dbh,0dbh,0dbh,0dbh,0dbh,0dbh
   6d42   20 20 20 20   
   6d46   dc db db db   
   6d4a   db db db db   
   6d4e   db db db 1b   	db	0dbh,0dbh,0dbh,01bh,05bh,031h,03bh,034h,030h,06dh,0deh,0dbh,0dbh,0dbh,0dbh,0dbh
   6d52   5b 31 3b 34   
   6d56   30 6d de db   
   6d5a   db db db db   
   6d5e   db df 1b 5b   	db	0dbh,0dfh,01bh,05bh,030h,03bh,033h,030h,03bh,034h,032h,06dh,0dfh,020h,020h,020h
   6d62   30 3b 33 30   
   6d66   3b 34 32 6d   
   6d6a   df 20 20 20   
   6d6e   1b 5b 31 3b   	db	01bh,05bh,031h,03bh,033h,033h,03bh,034h,030h,06dh,0deh,01bh,05bh,034h,037h,06dh
   6d72   33 33 3b 34   
   6d76   30 6d de 1b   
   6d7a   5b 34 37 6d   
   6d7e   db db 1b 5b   	db	0dbh,0dbh,01bh,05bh,033h,032h,03bh,034h,030h,06dh,0deh,01bh,05bh,034h,032h,06dh
   6d82   33 32 3b 34   
   6d86   30 6d de 1b   
   6d8a   5b 34 32 6d   
   6d8e   db db db 1b   	db	0dbh,0dbh,0dbh,01bh,05bh,034h,030h,06dh,0dbh,01bh,05bh,030h,03bh,033h,030h,03bh
   6d92   5b 34 30 6d   
   6d96   db 1b 5b 30   
   6d9a   3b 33 30 3b   
   6d9e   34 32 6d dd   	db	034h,032h,06dh,0ddh,020h,020h,00dh,00ah,01bh,05bh,034h,033h,06dh,07ch,07ch,07ch
   6da2   20 20 0d 0a   
   6da6   1b 5b 34 33   
   6daa   6d 7c 7c 7c   
   6dae   7c 7c 1b 5b   	db	07ch,07ch,01bh,05bh,033h,037h,06dh,0dch,0dbh,0dbh,0dbh,0dbh,01bh,05bh,034h,032h
   6db2   33 37 6d dc   
   6db6   db db db db   
   6dba   1b 5b 34 32   
   6dbe   6d db dc 1b   	db	06dh,0dbh,0dch,01bh,05bh,033h,032h,03bh,034h,036h,06dh,0dbh,0dbh,0dch,03bh,03bh
   6dc2   5b 33 32 3b   
   6dc6   34 36 6d db   
   6dca   db dc 3b 3b   
   6dce   3b 20 20 20   	db	03bh,020h,020h,020h,020h,020h,020h,020h,020h,020h,020h,020h,020h,020h,020h,020h
   6dd2   20 20 20 20   
   6dd6   20 20 20 20   
   6dda   20 20 20 20   
   6dde   20 20 20 20   	db	020h,020h,020h,020h,020h,020h,020h,020h,0dch,0dch,01bh,05bh,034h,032h,06dh,020h
   6de2   20 20 20 20   
   6de6   dc dc 1b 5b   
   6dea   34 32 6d 20   
   6dee   20 20 20 20   	db	020h,020h,020h,020h,020h,020h,020h,020h,020h,020h,020h,020h,01bh,05bh,033h,030h
   6df2   20 20 20 20   
   6df6   20 20 20 20   
   6dfa   1b 5b 33 30   
   6dfe   6d de 1b 5b   	db	06dh,0deh,01bh,05bh,031h,03bh,033h,032h,03bh,034h,030h,06dh,0dbh,0dfh,0dbh,0dfh
   6e02   31 3b 33 32   
   6e06   3b 34 30 6d   
   6e0a   db df db df   
   6e0e   db df 1b 5b   	db	0dbh,0dfh,01bh,05bh,030h,03bh,033h,030h,03bh,034h,032h,06dh,0ddh,020h,020h,020h
   6e12   30 3b 33 30   
   6e16   3b 34 32 6d   
   6e1a   dd 20 20 20   
   6e1e   1b 5b 31 3b   	db	01bh,05bh,031h,03bh,033h,033h,03bh,034h,030h,06dh,0deh,01bh,05bh,034h,037h,06dh
   6e22   33 33 3b 34   
   6e26   30 6d de 1b   
   6e2a   5b 34 37 6d   
   6e2e   db db 1b 5b   	db	0dbh,0dbh,01bh,05bh,034h,030h,06dh,0ddh,01bh,05bh,033h,032h,03bh,034h,032h,06dh
   6e32   34 30 6d dd   
   6e36   1b 5b 33 32   
   6e3a   3b 34 32 6d   
   6e3e   db db db db   	db	0dbh,0dbh,0dbh,0dbh,01bh,05bh,034h,030h,06dh,0ddh,01bh,05bh,034h,032h,06dh,020h
   6e42   1b 5b 34 30   
   6e46   6d dd 1b 5b   
   6e4a   34 32 6d 20   
   6e4e   20 20 0d 0a   	db	020h,020h,00dh,00ah,01bh,05bh,030h,03bh,033h,030h,03bh,034h,033h,06dh,07ch,07ch
   6e52   1b 5b 30 3b   
   6e56   33 30 3b 34   
   6e5a   33 6d 7c 7c   
   6e5e   7c 7c 7c 1b   	db	07ch,07ch,07ch,01bh,05bh,033h,037h,06dh,0dfh,0dbh,0dbh,0dbh,0dbh,01bh,05bh,034h
   6e62   5b 33 37 6d   
   6e66   df db db db   
   6e6a   db 1b 5b 34   
   6e6e   32 6d db df   	db	032h,06dh,0dbh,0dfh,01bh,05bh,033h,032h,03bh,034h,036h,06dh,0dbh,0dbh,0dbh,0dbh
   6e72   1b 5b 33 32   
   6e76   3b 34 36 6d   
   6e7a   db db db db   
   6e7e   db dc 20 20   	db	0dbh,0dch,020h,020h,020h,020h,020h,020h,020h,020h,020h,020h,020h,020h,0dch,0dch
   6e82   20 20 20 20   
   6e86   20 20 20 20   
   6e8a   20 20 dc dc   
   6e8e   dc dc dc dc   	db	0dch,0dch,0dch,0dch,0dch,01bh,05bh,034h,032h,06dh,020h,020h,020h,020h,020h,020h
   6e92   dc 1b 5b 34   
   6e96   32 6d 20 20   
   6e9a   20 20 20 20   
   6e9e   20 20 20 20   	db	020h,020h,020h,020h,020h,020h,020h,020h,020h,020h,020h,020h,020h,020h,01bh,05bh
   6ea2   20 20 20 20   
   6ea6   20 20 20 20   
   6eaa   20 20 1b 5b   
   6eae   33 30 6d df   	db	033h,030h,06dh,0dfh,01bh,05bh,031h,03bh,033h,032h,03bh,034h,030h,06dh,0dfh,0dfh
   6eb2   1b 5b 31 3b   
   6eb6   33 32 3b 34   
   6eba   30 6d df df   
   6ebe   df dc 1b 5b   	db	0dfh,0dch,01bh,05bh,030h,03bh,033h,030h,03bh,034h,032h,06dh,0ddh,020h,020h,020h
   6ec2   30 3b 33 30   
   6ec6   3b 34 32 6d   
   6eca   dd 20 20 20   
   6ece   1b 5b 31 3b   	db	01bh,05bh,031h,03bh,033h,033h,03bh,034h,030h,06dh,0deh,01bh,05bh,034h,037h,06dh
   6ed2   33 33 3b 34   
   6ed6   30 6d de 1b   
   6eda   5b 34 37 6d   
   6ede   db db 1b 5b   	db	0dbh,0dbh,01bh,05bh,034h,030h,06dh,0ddh,01bh,05bh,033h,032h,03bh,034h,032h,06dh
   6ee2   34 30 6d dd   
   6ee6   1b 5b 33 32   
   6eea   3b 34 32 6d   
   6eee   db db db db   	db	0dbh,0dbh,0dbh,0dbh,01bh,05bh,034h,030h,06dh,0dbh,01bh,05bh,030h,03bh,033h,030h
   6ef2   1b 5b 34 30   
   6ef6   6d db 1b 5b   
   6efa   30 3b 33 30   
   6efe   3b 34 32 6d   	db	03bh,034h,032h,06dh,0ddh,020h,020h,020h,00dh,00ah,01bh,05bh,034h,033h,06dh,07ch
   6f02   dd 20 20 20   
   6f06   0d 0a 1b 5b   
   6f0a   34 33 6d 7c   
   6f0e   7c 7c 7c 7c   	db	07ch,07ch,07ch,07ch,07ch,07ch,07ch,01bh,05bh,031h,03bh,034h,032h,06dh,0dbh,0ddh
   6f12   7c 7c 7c 1b   
   6f16   5b 31 3b 34   
   6f1a   32 6d db dd   
   6f1e   1b 5b 30 3b   	db	01bh,05bh,030h,03bh,033h,032h,03bh,034h,036h,06dh,0dbh,0dbh,0dbh,0dbh,0dbh,0dbh
   6f22   33 32 3b 34   
   6f26   36 6d db db   
   6f2a   db db db db   
   6f2e   db db db dc   	db	0dbh,0dbh,0dbh,0dch,020h,020h,020h,020h,020h,020h,020h,020h,0dch,01bh,05bh,034h
   6f32   20 20 20 20   
   6f36   20 20 20 20   
   6f3a   dc 1b 5b 34   
   6f3e   32 6d 20 1b   	db	032h,06dh,020h,01bh,05bh,033h,037h,06dh,02ah,020h,04eh,06fh,074h,065h,020h,074h
   6f42   5b 33 37 6d   
   6f46   2a 20 4e 6f   
   6f4a   74 65 20 74   
   6f4e   68 61 74 20   	db	068h,061h,074h,020h,067h,06fh,069h,06eh,067h,020h,069h,06eh,020h,074h,068h,065h
   6f52   67 6f 69 6e   
   6f56   67 20 69 6e   
   6f5a   20 74 68 65   
   6f5e   20 20 20 1b   	db	020h,020h,020h,01bh,05bh,031h,03bh,033h,033h,03bh,034h,031h,06dh,0b0h,0dbh,0dbh
   6f62   5b 31 3b 33   
   6f66   33 3b 34 31   
   6f6a   6d b0 db db   
   6f6e   b0 1b 5b 30   	db	0b0h,01bh,05bh,030h,03bh,033h,030h,03bh,034h,032h,06dh,0dfh,020h,020h,0dch,01bh
   6f72   3b 33 30 3b   
   6f76   34 32 6d df   
   6f7a   20 20 dc 1b   
   6f7e   5b 31 3b 33   	db	05bh,031h,03bh,033h,033h,03bh,034h,030h,06dh,0dch,0dbh,0dbh,0dbh,01bh,05bh,033h
   6f82   33 3b 34 30   
   6f86   6d dc db db   
   6f8a   db 1b 5b 33   
   6f8e   32 6d de 1b   	db	032h,06dh,0deh,01bh,05bh,034h,032h,06dh,0dbh,0dbh,0dbh,01bh,05bh,034h,030h,06dh
   6f92   5b 34 32 6d   
   6f96   db db db 1b   
   6f9a   5b 34 30 6d   
   6f9e   db dd 1b 5b   	db	0dbh,0ddh,01bh,05bh,030h,03bh,033h,032h,06dh,0dbh,01bh,05bh,034h,032h,06dh,020h
   6fa2   30 3b 33 32   
   6fa6   6d db 1b 5b   
   6faa   34 32 6d 20   
   6fae   20 20 0d 0a   	db	020h,020h,00dh,00ah,01bh,05bh,033h,030h,03bh,034h,033h,06dh,07ch,07ch,07ch,07ch
   6fb2   1b 5b 33 30   
   6fb6   3b 34 33 6d   
   6fba   7c 7c 7c 7c   
   6fbe   7c 7c 7c 7c   	db	07ch,07ch,07ch,07ch,01bh,05bh,031h,03bh,034h,032h,06dh,0deh,0dbh,020h,020h,020h
   6fc2   1b 5b 31 3b   
   6fc6   34 32 6d de   
   6fca   db 20 20 20   
   6fce   20 20 20 20   	db	020h,020h,020h,020h,020h,020h,020h,01bh,05bh,033h,037h,06dh,049h,01bh,05bh,034h
   6fd2   20 20 20 1b   
   6fd6   5b 33 37 6d   
   6fda   49 1b 5b 34   
   6fde   36 6d 49 49   	db	036h,06dh,049h,049h,049h,049h,049h,049h,01bh,05bh,034h,032h,06dh,049h,020h,020h
   6fe2   49 49 49 49   
   6fe6   1b 5b 34 32   
   6fea   6d 49 20 20   
   6fee   20 20 1b 5b   	db	020h,020h,01bh,05bh,030h,03bh,034h,032h,06dh,06fh,070h,070h,06fh,073h,069h,074h
   6ff2   30 3b 34 32   
   6ff6   6d 6f 70 70   
   6ffa   6f 73 69 74   
   6ffe   65 20 64 69   	db	065h,020h,064h,069h,072h,065h,063h,074h,069h,06fh,06eh,020h,020h,020h,020h,020h
   7002   72 65 63 74   
   7006   69 6f 6e 20   
   700a   20 20 20 20   
   700e   20 1b 5b 31   	db	020h,01bh,05bh,031h,03bh,033h,033h,03bh,034h,031h,06dh,0b0h,0b2h,0dbh,0b2h,01bh
   7012   3b 33 33 3b   
   7016   34 31 6d b0   
   701a   b2 db b2 1b   
   701e   5b 34 32 6d   	db	05bh,034h,032h,06dh,020h,020h,020h,01bh,05bh,034h,030h,06dh,0deh,0dbh,01bh,05bh
   7022   20 20 20 1b   
   7026   5b 34 30 6d   
   702a   de db 1b 5b   
   702e   34 37 6d db   	db	034h,037h,06dh,0dbh,0dbh,01bh,05bh,034h,030h,06dh,0dfh,01bh,05bh,033h,032h,06dh
   7032   db 1b 5b 34   
   7036   30 6d df 1b   
   703a   5b 33 32 6d   
   703e   dc 1b 5b 34   	db	0dch,01bh,05bh,034h,032h,06dh,0dbh,0dbh,0dbh,0dbh,01bh,05bh,034h,030h,06dh,0dbh
   7042   32 6d db db   
   7046   db db 1b 5b   
   704a   34 30 6d db   
   704e   dd 1b 5b 34   	db	0ddh,01bh,05bh,034h,032h,06dh,020h,020h,020h,020h,00dh,00ah,01bh,05bh,030h,03bh
   7052   32 6d 20 20   
   7056   20 20 0d 0a   
   705a   1b 5b 30 3b   
   705e   33 30 3b 34   	db	033h,030h,03bh,034h,033h,06dh,07ch,07ch,07ch,07ch,07ch,07ch,07ch,07ch,01bh,05bh
   7062   33 6d 7c 7c   
   7066   7c 7c 7c 7c   
   706a   7c 7c 1b 5b   
   706e   34 32 6d 20   	db	034h,032h,06dh,020h,01bh,05bh,031h,06dh,0dbh,0ddh,020h,020h,020h,020h,020h,020h
   7072   1b 5b 31 6d   
   7076   db dd 20 20   
   707a   20 20 20 20   
   707e   20 20 20 20   	db	020h,020h,020h,020h,01bh,05bh,030h,03bh,033h,032h,03bh,034h,033h,06dh,0ddh,01bh
   7082   1b 5b 30 3b   
   7086   33 32 3b 34   
   708a   33 6d dd 1b   
   708e   5b 33 30 6d   	db	05bh,033h,030h,06dh,05ch,05ch,05ch,05ch,05ch,01bh,05bh,033h,032h,06dh,0deh,01bh
   7092   5c 5c 5c 5c   
   7096   5c 1b 5b 33   
   709a   32 6d de 1b   
   709e   5b 34 32 6d   	db	05bh,034h,032h,06dh,020h,020h,020h,020h,01bh,05bh,033h,037h,06dh,077h,06fh,06eh
   70a2   20 20 20 20   
   70a6   1b 5b 33 37   
   70aa   6d 77 6f 6e   
   70ae   27 74 20 61   	db	027h,074h,020h,061h,06ch,077h,061h,079h,073h,020h,067h,065h,074h,020h,079h,06fh
   70b2   6c 77 61 79   
   70b6   73 20 67 65   
   70ba   74 20 79 6f   
   70be   75 20 20 20   	db	075h,020h,020h,020h,020h,01bh,05bh,031h,03bh,033h,033h,03bh,034h,031h,06dh,0b2h
   70c2   20 1b 5b 31   
   70c6   3b 33 33 3b   
   70ca   34 31 6d b2   
   70ce   db b2 1b 5b   	db	0dbh,0b2h,01bh,05bh,034h,032h,06dh,020h,020h,020h,01bh,05bh,034h,030h,06dh,0deh
   70d2   34 32 6d 20   
   70d6   20 20 1b 5b   
   70da   34 30 6d de   
   70de   1b 5b 34 37   	db	01bh,05bh,034h,037h,06dh,0dbh,0dbh,0dbh,01bh,05bh,034h,030h,06dh,0ddh,01bh,05bh
   70e2   6d db db db   
   70e6   1b 5b 34 30   
   70ea   6d dd 1b 5b   
   70ee   33 32 6d db   	db	033h,032h,06dh,0dbh,01bh,05bh,034h,032h,06dh,0dbh,01bh,05bh,034h,030h,06dh,0dbh
   70f2   1b 5b 34 32   
   70f6   6d db 1b 5b   
   70fa   34 30 6d db   
   70fe   1b 5b 34 32   	db	01bh,05bh,034h,032h,06dh,0dbh,0dbh,0dbh,0dbh,01bh,05bh,034h,030h,06dh,0dbh,01bh
   7102   6d db db db   
   7106   db 1b 5b 34   
   710a   30 6d db 1b   
   710e   5b 30 3b 33   	db	05bh,030h,03bh,033h,030h,03bh,034h,032h,06dh,0ddh,020h,020h,020h,00dh,00ah,01bh
   7112   30 3b 34 32   
   7116   6d dd 20 20   
   711a   20 0d 0a 1b   
   711e   5b 34 33 6d   	db	05bh,034h,033h,06dh,07ch,07ch,07ch,07ch,07ch,07ch,07ch,07ch,01bh,05bh,034h,032h
   7122   7c 7c 7c 7c   
   7126   7c 7c 7c 7c   
   712a   1b 5b 34 32   
   712e   6d 20 1b 5b   	db	06dh,020h,01bh,05bh,031h,06dh,0deh,0dbh,020h,020h,020h,020h,020h,020h,020h,020h
   7132   31 6d de db   
   7136   20 20 20 20   
   713a   20 20 20 20   
   713e   20 20 1b 5b   	db	020h,020h,01bh,05bh,033h,037h,06dh,049h,049h,01bh,05bh,034h,036h,06dh,049h,049h
   7142   33 37 6d 49   
   7146   49 1b 5b 34   
   714a   36 6d 49 49   
   714e   49 49 49 1b   	db	049h,049h,049h,01bh,05bh,034h,032h,06dh,049h,01bh,05bh,030h,03bh,034h,032h,06dh
   7152   5b 34 32 6d   
   7156   49 1b 5b 30   
   715a   3b 34 32 6d   
   715e   20 20 20 62   	db	020h,020h,020h,062h,061h,063h,06bh,020h,077h,068h,065h,072h,065h,020h,079h,06fh
   7162   61 63 6b 20   
   7166   77 68 65 72   
   716a   65 20 79 6f   
   716e   75 20 77 65   	db	075h,020h,077h,065h,072h,065h,021h,020h,020h,020h,01bh,05bh,031h,03bh,033h,033h
   7172   72 65 21 20   
   7176   20 20 1b 5b   
   717a   31 3b 33 33   
   717e   3b 34 31 6d   	db	03bh,034h,031h,06dh,0b1h,0b2h,0b1h,01bh,05bh,034h,032h,06dh,020h,020h,020h,01bh
   7182   b1 b2 b1 1b   
   7186   5b 34 32 6d   
   718a   20 20 20 1b   
   718e   5b 34 30 6d   	db	05bh,034h,030h,06dh,0deh,01bh,05bh,034h,037h,06dh,0dbh,0dbh,0dbh,0dbh,01bh,05bh
   7192   de 1b 5b 34   
   7196   37 6d db db   
   719a   db db 1b 5b   
   719e   33 32 3b 34   	db	033h,032h,03bh,034h,030h,06dh,0deh,01bh,05bh,034h,032h,06dh,0dbh,0dbh,0dbh,0dbh
   71a2   30 6d de 1b   
   71a6   5b 34 32 6d   
   71aa   db db db db   
   71ae   db db db db   	db	0dbh,0dbh,0dbh,0dbh,01bh,05bh,034h,030h,06dh,0ddh,01bh,05bh,034h,032h,06dh,020h
   71b2   1b 5b 34 30   
   71b6   6d dd 1b 5b   
   71ba   34 32 6d 20   
   71be   20 20 0d 0a   	db	020h,020h,00dh,00ah,01bh,05bh,030h,03bh,033h,030h,03bh,034h,033h,06dh,07ch,07ch
   71c2   1b 5b 30 3b   
   71c6   33 30 3b 34   
   71ca   33 6d 7c 7c   
   71ce   7c 7c 7c 7c   	db	07ch,07ch,07ch,07ch,05ch,05ch,05ch,01bh,05bh,034h,032h,06dh,020h,01bh,05bh,031h
   71d2   5c 5c 5c 1b   
   71d6   5b 34 32 6d   
   71da   20 1b 5b 31   
   71de   6d db dd 1b   	db	06dh,0dbh,0ddh,01bh,05bh,030h,03bh,033h,032h,03bh,034h,036h,06dh,0dbh,0dbh,0dbh
   71e2   5b 30 3b 33   
   71e6   32 3b 34 36   
   71ea   6d db db db   
   71ee   db db db db   	db	0dbh,0dbh,0dbh,0dbh,0dbh,0dbh,0dbh,0dbh,0dch,020h,020h,020h,020h,020h,0dbh,0dbh
   71f2   db db db db   
   71f6   dc 20 20 20   
   71fa   20 20 db db   
   71fe   db db db db   	db	0dbh,0dbh,0dbh,0dbh,0dbh,0dbh,0dbh,0dbh,0dbh,0dbh,0dbh,0dbh,0dbh,0dbh,0dbh,0dbh
   7202   db db db db   
   7206   db db db db   
   720a   db db db db   
   720e   db db db db   	db	0dbh,0dbh,0dbh,0dbh,0dbh,0dbh,0dbh,0dbh,01bh,05bh,031h,03bh,033h,033h,03bh,034h
   7212   db db db db   
   7216   1b 5b 31 3b   
   721a   33 33 3b 34   
   721e   31 6d b0 b1   	db	031h,06dh,0b0h,0b1h,01bh,05bh,034h,032h,06dh,020h,020h,020h,01bh,05bh,030h,03bh
   7222   1b 5b 34 32   
   7226   6d 20 20 20   
   722a   1b 5b 30 3b   
   722e   33 30 3b 34   	db	033h,030h,03bh,034h,032h,06dh,0deh,01bh,05bh,031h,03bh,033h,033h,03bh,034h,037h
   7232   32 6d de 1b   
   7236   5b 31 3b 33   
   723a   33 3b 34 37   
   723e   6d db db db   	db	06dh,0dbh,0dbh,0dbh,0dbh,0dbh,01bh,05bh,034h,030h,06dh,0ddh,01bh,05bh,033h,032h
   7242   db db 1b 5b   
   7246   34 30 6d dd   
   724a   1b 5b 33 32   
   724e   3b 34 32 6d   	db	03bh,034h,032h,06dh,0dbh,0dbh,0dbh,0dbh,0dbh,0dbh,0dbh,0dbh,0dbh,01bh,05bh,030h
   7252   db db db db   
   7256   db db db db   
   725a   db 1b 5b 30   
   725e   3b 33 30 3b   	db	03bh,033h,030h,03bh,034h,032h,06dh,0ddh,020h,020h,00dh,00ah,01bh,05bh,031h,03bh
   7262   34 32 6d dd   
   7266   20 20 0d 0a   
   726a   1b 5b 31 3b   
   726e   33 37 3b 34   	db	033h,037h,03bh,034h,030h,06dh,028h,04ch,065h,065h,020h,048h,061h,072h,074h,02ch
   7272   30 6d 28 4c   
   7276   65 65 20 48   
   727a   61 72 74 2c   
   727e   20 34 2f 31   	db	020h,034h,02fh,031h,038h,02fh,032h,030h,032h,030h,029h,020h,020h,020h,020h,020h
   7282   38 2f 32 30   
   7286   32 30 29 20   
   728a   20 20 20 20   
   728e   20 20 20 20   	db	020h,020h,020h,020h,020h,020h,020h,020h,020h,020h,020h,020h,020h,020h,020h,020h
   7292   20 20 20 20   
   7296   20 20 20 20   
   729a   20 20 20 20   
   729e   20 20 20 20   	db	020h,020h,020h,020h,020h,020h,020h,020h,020h,020h,020h,020h,01bh,05bh,035h,06dh
   72a2   20 20 20 20   
   72a6   20 20 20 20   
   72aa   1b 5b 35 6d   
   72ae   50 52 45 53   	db	050h,052h,045h,053h,053h,020h,041h,04eh,059h,020h,04bh,045h,059h,020h,054h,04fh
   72b2   53 20 41 4e   
   72b6   59 20 4b 45   
   72ba   59 20 54 4f   
   72be   20 43 4f 4e   	db	020h,043h,04fh,04eh,054h,049h,04eh,055h,045h,01bh,05bh,030h,06dh,000h
   72c2   54 49 4e 55   
   72c6   45 1b 5b 30   
   72ca   6d 00         
                        ;
   72cc   2f 62 69 6e   SavePath:	db	'/bin/adven-1.dat',0
   72d0   2f 61 64 76   
   72d4   65 6e 2d 31   
   72d8   2e 64 61 74   
   72dc   00            
                        ;__________________________________________________________________________________________________
                        ; Read/Write Data
                        
                        Array_TPS       BLK		80      ; These data members must all stay in this order
                        SaveStart	EQU		$
                        Array_IA	BLK		IL
   736a   00 00         Array_NV	DB		0, 0
   736c   00            Loadflag	DB		0
   736d   00            Endflag		DB		0
   736e   00            Darkflag	DB		0
   736f   00            Room		DB		0
   7370   00            LampOil		DB		0
   7371   00 00         StateFlags      DW		0
                        SaveLength	EQU		$-SaveStart
                        
   7373   12            Rand_VarX       DB		18      ; These data members must all stay in this order
   7374   a6            Rand_VarA       DB		166
   7375   dc            Rand_VarB       DB		220
   7376   40            Rand_VarC       DB		64
                        
   7377   00 00 00      PrintNumber     DB		0,0,0   ; temporary location for storing 2-digit number to print
                        
                        		ds	64
                        localStack:	ds	1
                        saveStack:	ds	2
                        
                        SaveFiledes:
   73bd   00 00 00 00   	db	0,0,0,0
   73c1   73 d2         	dw	SaveDTA
   73c3   00 00         	db	0,0
   73c5   00            	db	0
   73c6   00 00 00 00   	db	0,0,0,0
   73ca   00 00 00 00   	dw	0,0
   73ce   00 00 00 00   	db	0,0,0,0
                        ;
                        endrom	equ	$
                        ;
                        SaveDTA:	ds	512
                        
                        	end
2fef  Action1Msg    3008  Action2Msg    303d  Action3_1Msg    3052  Action3_2Msg
308b  Action3_3Msg    3095  Action4Msg    3147  Action5Msg    3164  Action6Msg
316d  Action7Msg    000b  AR            3192  Array_C       3cc3  Array_DIR 
63d7  Array_I2      732d  Array_IA      736a  Array_NV      3ae3  Array_NVS 
3cf0  Array_RM      72dd  Array_TPS     0004  b_devBBSER    0002  b_devFLPY 
0001  b_devIDE      0020  b_devNVR      0010  b_devRTC      0008  b_devUART 
ff00  BIOS          0008  bs            2006  build         2f1c  CarryDrop1Msg
2f2c  CarryDrop2Msg    2f57  CarryDrop3Msg    2f6c  CarryDrop4Msg    2f8c  CarryDrop5Msg
2fa3  CarryDrop6Msg    2fc3  CarryDrop7Msg    2690  CDDropItem    25c6  CDHaveNoun
25d7  CDLoop1       25df  CDLoop1Tail    260e  CDLoop2       2612  CDLoop2_1 
261d  CDLoop2_2     263a  CDLoop2_2NoMatch1    2639  CDLoop2_2NoMatch2    2663  CDLoop2_FoundObject
2640  CDLoop2Done    264d  CDLoop2Done2    265b  CDLoop2Done3    263b  CDLoop2Tail
25f6  CDNotTake     269e  CDPrintAndReturn    2680  CDTakeItem    0095  CL        
2764  CLCheck10Loop1    277f  CLCheck11Loop1    27a4  CLDebug1      204e  ClearScreen
26b1  CLLoop1       26bd  CLLoop1_1     26c9  CLLoop1_1Done    27a9  CLLoop1Tail
26da  CLLoopCheck1    2756  CLLoopCheck10    2772  CLLoopCheck11    278a  CLLoopCheck12
2799  CLLoopCheck13    27a2  CLLoopCheck14    26e9  CLLoopCheck2    26f6  CLLoopCheck3
2709  CLLoopCheck4    2716  CLLoopCheck5    2723  CLLoopCheck6    2731  CLLoopCheck7
273e  CLLoopCheck8    274a  CLLoopCheck9    235d  CloseLoadFile    2b81  CloseSaveFile
27b7  CLReturnFalse    27ae  CLReturnTrue    2bbf  ClsMsg        000d  cr        
28ae  DAAction59    295a  DAAction65Loop    296d  DAAction65LoopTail    29d1  DAAction66Loop1
29ea  DAAction66Loop1_1    29f7  DAAction66Loop1_1Done    2a14  DAAction66Loop1_2    2a26  DAAction66Loop1_2Done
2a32  DAAction66Loop1Tail    2a46  DAAction66NotEmpty    2a0c  DAAction66SkipLinefeed    27ee  DACheck52 
27fd  DACheck52Loop    2803  DACheck52Next    281a  DACheck52TakeItem    282b  DACheck53 
2846  DACheck54     2858  DACheck55     2860  DACheck56     2871  DACheck57 
2882  DACheck58     2899  DACheck58Loop    28a3  DACheck58LoopDone    28aa  DACheck59 
28bf  DACheck60     28d7  DACheck60Loop    28e3  DACheck60LoopDone    28ea  DACheck61 
2908  DACheck62     291f  DACheck63     293e  DACheck64     2945  DACheck65 
29b8  DACheck66     2a52  DACheck67     2a63  DACheck68     2a75  DACheck69 
2a8e  DACheck70     2a98  DACheck71     2aac  DACheck72     2aae  DADebug1  
2acf  DADoLook      27cf  DAPrintMessage    2828  DAReturnFalse1    29b5  DAReturnFalse2
2acc  DAReturnFalse3    736e  Darkflag      2002  date          007f  del       
27c0  Do_Action     25b1  Do_CarryDrop    26a2  Do_CheckLogics    2182  Do_GetInput
2310  Do_LoadGame    2367  Do_Look       2b2e  Do_SaveGame    2457  Do_Turn   
2aee  Do_YesNo      f800  EBIOS         736d  Endflag       73d2  endrom    
0005  errdirnotempty    0001  errexists     0003  errinvdir     0004  errisdir  
0002  errnoffnd     0006  errnotexec    001b  esc           20a5  Exit      
f830  f_astodt      f833  f_astotm      ff5d  f_atoi        ff00  f_boot    
ff42  f_bootide     f800  f_bread       ff6c  f_brktest     f806  f_btest   
f803  f_btype       ff33  f_div16       ff2a  f_drive       f827  f_dttoas  
ff6f  f_findtkn     ff57  f_freemem     ff81  f_getdev      f815  f_gettod  
ff45  f_hexin       ff48  f_hexout2     ff4b  f_hexout4     f824  f_ideid   
ff3c  f_ideread     ff36  f_idereset    f821  f_idesize     ff39  f_idewrite
ff7b  f_idnum       ff3f  f_initcall    ff66  f_inmsg       ff0f  f_input   
ff69  f_inputl      ff63  f_intout      ff78  f_isalnum     ff72  f_isalpha 
ff75  f_ishex       ff5a  f_isnum       ff7e  f_isterm      ff15  f_ltrim   
ff1b  f_memcpy      ff54  f_minimon     ff51  f_mover       ff09  f_msg     
ff30  f_mul16       f836  f_nvrcchk     f81b  f_rdnvr       ff21  f_rdsec   
ff06  f_read        f82d  f_rtctest     ff27  f_seek        ff24  f_seek0   
ff2d  f_setbd       f818  f_settod      ff12  f_strcmp      ff18  f_strcpy  
f82a  f_tmtoas      ff4e  f_tty         ff03  f_type        ff0c  f_typex   
ff60  f_uintout     f80c  f_uread       f812  f_usetbd      f80f  f_utest   
f809  f_utype       fff9  f_version     f81e  f_wrnvr       ff1e  f_wrtsec  
2077  GameReset     20b0  GameStart     217f  GAV_FoundVar    2178  GAV_Loop1 
2058  GenRandom     21aa  GIBackspace    21f3  GICharOk      21cb  GIEnter   
21ff  GIgetsDone    21f0  GIJumpLoop1    2194  GILoop1       21c0  GILoop1N1 
21d7  GILoop1N2     230d  GIParseAllGood    220c  GIParseLoop1    2213  GIParseLoop1Done
2218  GIParseLoop2    2229  GIParseLoop2Done    222d  GIParseLoop3    2234  GIParseLoop3Done
223d  GIParseLoop4    225b  GIParseLoop5    2264  GIParseLoop5_1    228d  GIParseLoop5_1_1
2287  GIParseLoop5_1Match    226e  GIParseLoop5_1Next1    22aa  GIParseLoop5_1Next2    22ae  GIParseLoop5_1Next3
229c  GIParseLoop5_1NoMatch    2284  GIParseLoop5_1WordEnd    22b4  GIParseLoop5Tail    22e9  GIParseVerbOk
2086  GRLoop1       03f6  I_SERVE       5c94  IAS00_Msg     5c96  IAS01_Msg 
5ca0  IAS02_Msg     5cc0  IAS03_Msg     5cdf  IAS04_Msg     5d12  IAS05_Msg 
5d1f  IAS06_Msg     5d25  IAS07_Msg     5d3c  IAS08_Msg     5d5a  IAS09_Msg 
5d79  IAS10_Msg     5d97  IAS11_Msg     5ddb  IAS12_Msg     5dfb  IAS13_Msg 
5e0d  IAS14_Msg     5e28  IAS15_Msg     5e58  IAS16_Msg     5e66  IAS17_Msg 
5e91  IAS18_Msg     5e9b  IAS19_Msg     5eb8  IAS20_Msg     5ed1  IAS21_Msg 
5ef3  IAS22_Msg     5f10  IAS23_Msg     5f2e  IAS24_Msg     5f41  IAS25_Msg 
5f51  IAS26_Msg     5f8e  IAS28_Msg     5fa3  IAS29_Msg     5fc7  IAS30_Msg 
6016  IAS31_Msg     603c  IAS32_Msg     604e  IAS33_Msg     607c  IAS34_Msg 
6094  IAS35_Msg     60f1  IAS36_Msg     6103  IAS37_Msg     6120  IAS38_Msg 
613c  IAS39_Msg     6155  IAS40_Msg     616d  IAS41_Msg     6184  IAS42_Msg 
619d  IAS43_Msg     61b4  IAS44_Msg     61db  IAS45_Msg     622a  IAS46_Msg 
624a  IAS47_Msg     6275  IAS48_Msg     6291  IAS49_Msg     62b1  IAS50_Msg 
62f5  IAS51_Msg     6323  IAS52_Msg     634d  IAS53_Msg     6367  IAS54_Msg 
637d  IAS55_Msg     6393  IAS56_Msg     63ba  IAS57_Msg     63cd  IAS58_Msg 
63d3  IAS59_Msg     63d5  IAS60_Msg     5f78  IASesc_Msg    003d  IL        
2d43  InputError1Msg    2d5c  InputError2Msg    2d64  InputError3Msg    2d7d  InputError4Msg
2d23  InputPromptMsg    0406  K_BDAY        0405  K_BMONTH      0403  K_BUILD   
0407  K_BYEAR       0470  K_CLKFREQ     0476  K_DAY         044d  K_HEAP    
0442  K_HIMEM       0478  K_HOUR        0479  K_MINUTE      0475  K_MONTH   
047b  K_SECDEN      047d  K_SECNUM      047a  K_SECOND      0400  K_VER     
0477  K_YEAR        2cc5  LampEmptyMsg    2cee  LampLow1Msg    2d15  LampLow2Msg
212f  LampNotEmpty    7370  LampOil       000a  lf            2320  LGNext1   
007d  LI            23b7  LKLoop1       23e9  LKLoop1_1     23f6  LKLoop1_1Tail
23cc  LKLoop1Next1    2400  LKLoop1Tail    2418  LKLoop2       242c  LKLoop2Next1
2440  LKLoop2Tail    2389  LKNotDark     23a6  LKPrintRoom1    0003  LN        
2335  LoadFailed    2c6f  LoadFailedMsg    736c  Loadflag      2342  LoadOpened
2c49  LoadQestion    73ba  localStack    2d88  Look1Msg      2db2  Look2Msg  
2dbc  Look3Msg      2de0  Look4Msg      20f1  MainGetInput    20d9  MainLoad  
2164  MainLoopTail    2158  MainNoLamp    004f  MAXLINE       0050  ML        
423f  MSS00_Msg     4241  MSS01_Msg     4254  MSS02_Msg     42c9  MSS03_Msg 
4305  MSS04_Msg     4391  MSS05_Msg     4408  MSS06_Msg     445a  MSS07_Msg 
44c4  MSS08_Msg     4538  MSS09_Msg     4566  MSS10_Msg     45a8  MSS11_Msg 
45f6  MSS12_Msg     4624  MSS13_Msg     465c  MSS14_Msg     46ba  MSS15_Msg 
471b  MSS16_Msg     474c  MSS17_Msg     47ae  MSS18_Msg     4880  MSS19_Msg 
48bf  MSS20_Msg     4912  MSS21_Msg     4982  MSS22_Msg     49ee  MSS23_Msg 
4a33  MSS24_Msg     4a5b  MSS25_Msg     4a96  MSS26_Msg     4af9  MSS27_Msg 
4b47  MSS28_Msg     4bd4  MSS29_Msg     4c20  MSS30_Msg     4c79  MSS31_Msg 
4cf8  MSS32_Msg     4d4c  MSS33_Msg     4ddf  MSS34_Msg     4e04  MSS35_Msg 
4e66  MSS36_Msg     4efc  MSS37_Msg     4f21  MSS38_Msg     4f59  MSS39_Msg 
4fbd  MSS40_Msg     4fff  MSS41_Msg     509b  MSS42_Msg     5102  MSS43_Msg 
516a  MSS44_Msg     5203  MSS45_Msg     525c  MSS46_Msg     52aa  MSS47_Msg 
52d1  MSS48_Msg     532b  MSS49_Msg     5380  MSS50_Msg     53ea  MSS51_Msg 
5409  MSS52_Msg     5451  MSS53_Msg     5468  MSS54_Msg     54a1  MSS55_Msg 
54ed  MSS56_Msg     553d  MSS57_Msg     5572  MSS58_Msg     5597  MSS59_Msg 
55c8  MSS60_Msg     5606  MSS61_Msg     5625  MSS62_Msg     565b  MSS63_Msg 
567f  MSS64_Msg     56b8  MSS65_Msg     56fa  MSS66_Msg     570d  MSS67_Msg 
5768  MSS68_Msg     57cf  MSS69_Msg     5833  MSS70_Msg     58bb  MSS71_Msg 
58dc  MSS72_Msg     5964  MSS73_Msg     59d7  MSS74_Msg     5a1b  MSS75_Msg 
5a7a  MSS76_Msg     5ab4  MSS77_Msg     5b22  MSS78_Msg     5b7a  MSS79_Msg 
5c03  MSS80_Msg     0005  MX            2c46  NewlineMsg    003c  NL        
036c  O_ALLOC       0004  O_APPND       035a  O_BOOT        0366  O_BRKTEST 
0324  O_CHDIR       0300  O_CLDBOOT     0312  O_CLOSE       0001  O_CREAT   
0475  O_DATTIM      036f  O_DEALLOC     0318  O_DELETE      0369  O_DEVCTRL 
031e  O_EXEC        0342  O_EXECBIN     034e  O_GETDEV      0351  O_GETTOD  
0363  O_INITCALL    034b  O_INMSG       0339  O_INPUT       0357  O_INPUTL  
0348  O_KINIT       0321  O_MKDIR       0333  O_MSG         0306  O_OPEN    
0315  O_OPENDIR     033f  O_PRINT       033c  O_PRTSTAT     032a  O_RDLUMP  
0309  O_READ        0336  O_READKEY     031b  O_RENAME      0327  O_RMDIR   
030f  O_SEEK        0360  O_SETBD       0345  O_SETDEF      0354  O_SETTOD  
0002  O_TRUNC       035d  O_TTY         0330  O_TYPE        030c  O_WRITE   
032d  O_WRLUMP      0303  O_WRMBOOT     2043  P2D_Ones      204a  P2D_OnesDone
202d  P2D_Tens      2034  P2D_TensDone    2028  Print2Digit    7377  PrintNumber
0000  r0            0001  r1            000a  r10           000b  r11       
000c  r12           000d  r13           000e  r14           000f  r15       
0002  r2            0003  r3            0004  r4            0005  r5        
0006  r6            0007  r7            0008  r8            0009  r9        
000a  ra            7374  Rand_VarA     7375  Rand_VarB     7376  Rand_VarC 
7373  Rand_VarX     000b  rb            000c  rc            000d  rd        
000e  re            000f  rf            0022  RL            736f  Room      
3e00  RSS00_Msg     3e02  RSS01_Msg     3e10  RSS02_Msg     3e38  RSS03_Msg 
3e5e  RSS04_Msg     3e7c  RSS05_Msg     3ea0  RSS06_Msg     3eb8  RSS07_Msg 
3ec6  RSS08_Msg     3eda  RSS09_Msg     3eea  RSS10_Msg     3f07  RSS11_Msg 
3f0f  RSS12_Msg     3f1d  RSS13_Msg     3f2b  RSS14_Msg     3f39  RSS15_Msg 
3f47  RSS16_Msg     3f55  RSS17_Msg     3f63  RSS18_Msg     3fb2  RSS19_Msg 
4002  RSS20_Msg     4011  RSS21_Msg     4060  RSS22_Msg     406d  RSS23_Msg 
407b  RSS24_Msg     40c1  RSS25_Msg     40cf  RSS26_Msg     40df  RSS27_Msg 
410e  RSS28_Msg     415f  RSS29_Msg     4161  RSS30_Msg     4163  RSS31_Msg 
4165  RSS32_Msg     4167  RSS33_Msg     73d2  SaveDTA       73bd  SaveFiledes
0046  SaveLength    2b69  SaveOpened    72cc  SavePath      73bb  saveStack 
732d  SaveStart     0004  scall         2bb1  ScoreTable    6414  splash    
0005  sret          2bce  StartingMsg    7371  StateFlags    2176  Sub_GetActionVariable
5c1a  Table_IAS     419d  Table_MSS     3dbc  Table_RSS     0003  TR        
000d  TT            24d0  TUBlockedAndDark    258c  TUCarryDrop    25a4  TUCommandWasFound
25b0  TUDone        24e3  TUExitNotBlocked    248b  TUHaveDirection    2473  TUHaveNoun
255b  TULoo1_1Tail    24f7  TULoop1       2547  TULoop1_1     2563  TULoop1_1Done
254f  TULoop1_1SkipAction    252d  TULoop1CheckCommand    257c  TULoop1Done    251c  TULoop1GetChances
2506  TULoop1Next1    256e  TULoop1Tail    2576  TULoop1Tail2    24ec  TUNoDirection
247c  TUNoGo        2596  TUNotCarryDrop    24ae  TUNotDark     25ad  TUPrintAndReturn
2e01  Turn1Msg      2e41  Turn2Msg      2e7b  Turn3Msg      2ea4  Turn4Msg  
2ed0  Turn5Msg      2efc  Turn6Msg      2592  TURunCarryDrop    24e6  TUSetRoom 
036a  V_DVEC        03fd  V_IVEC        2b8b  WriteError    2b0c  YN_No     
2b1d  YN_Yes        
